 TestServer(IDS)

 Timestamp is 59b92e44 (Wed Sep 13 22:10:28 2017)

 Preferred load address is 00400000

 Start         Length     Name                   Class
 0001:00000000 00010000H .textbss                DATA
 0002:00000000 000046eaH .text$di                CODE
 0002:000046f0 0001bc66H .text$mn                CODE
 0002:00020360 00001ca6H .text$x                 CODE
 0002:00022010 00001352H .text$yd                CODE
 0003:00000000 00000104H .CRT$XCA                DATA
 0003:00000104 00000104H .CRT$XCAA               DATA
 0003:00000208 00000109H .CRT$XCL                DATA
 0003:00000314 00000186H .CRT$XCU                DATA
 0003:0000049c 00000104H .CRT$XCZ                DATA
 0003:000005a0 00000104H .CRT$XIA                DATA
 0003:000006a4 00000104H .CRT$XIAA               DATA
 0003:000007a8 00000104H .CRT$XIAC               DATA
 0003:000008ac 00000104H .CRT$XIC                DATA
 0003:000009b0 00000104H .CRT$XIZ                DATA
 0003:00000ab4 00000004H .CRT$XLA                DATA
 0003:00000ab8 00000004H .CRT$XLZ                DATA
 0003:00000abc 00000104H .CRT$XPA                DATA
 0003:00000bc0 00000104H .CRT$XPZ                DATA
 0003:00000cc4 00000104H .CRT$XTA                DATA
 0003:00000dc8 00000104H .CRT$XTZ                DATA
 0003:00000ed0 00005e72H .rdata                  DATA
 0003:00006d44 0000011cH .rdata$T                DATA
 0003:00006e60 000007eaH .rdata$r                DATA
 0003:0000764c 0000018bH .rdata$zzzdbg           DATA
 0003:000077d8 00000104H .rtc$IAA                DATA
 0003:000078dc 0000013eH .rtc$IMZ                DATA
 0003:00007a1c 00000104H .rtc$IZZ                DATA
 0003:00007b20 00000104H .rtc$TAA                DATA
 0003:00007c24 0000013eH .rtc$TMZ                DATA
 0003:00007d64 00000104H .rtc$TZZ                DATA
 0003:00007e68 00000a1fH .xdata$x                DATA
 0003:00008888 00000104H ATL$__a                 DATA
 0003:0000898c 00000104H ATL$__z                 DATA
 0003:00008a90 00000000H .edata                  DATA
 0004:00000000 000003daH .data                   DATA
 0004:000003dc 00000384H .data$r                 DATA
 0004:00000760 00002eb8H .bss                    DATA
 0005:00000000 00000944H .idata$5                DATA
 0005:00000944 000000f0H .idata$2                DATA
 0005:00000a34 00000014H .idata$3                DATA
 0005:00000a48 00000944H .idata$4                DATA
 0005:0000138c 00000bcfH .idata$6                DATA
 0006:00000000 00000149H .gfids$y                DATA
 0007:00000000 00000101H .tls                    DATA
 0007:00000104 00000104H .tls$                   DATA
 0007:00000208 00000101H .tls$ZZZ                DATA
 0008:00000000 00000104H .00cfg                  DATA
 0009:00000000 0000076eH .rsrc$01                DATA
 0009:00000770 00014cd6H .rsrc$02                DATA

  Address         Publics by Value              Rva+Base       Lib:Object

 0000:00000000       ___safe_se_handler_count   00000000     <absolute>
 0000:00000000       ___guard_iat_count         00000000     <absolute>
 0000:00000000       ___guard_fids_table        00000000     <absolute>
 0000:00000000       ___guard_fids_count        00000000     <absolute>
 0000:00000000       ___guard_longjmp_table     00000000     <absolute>
 0000:00000000       ___guard_longjmp_count     00000000     <absolute>
 0000:00000000       ___guard_iat_table         00000000     <absolute>
 0000:00000000       ___safe_se_handler_table   00000000     <absolute>
 0000:0000002c       __tls_array                0000002c     <absolute>
 0000:00000100       ___guard_flags             00000100     <absolute>
 0000:00000000       ___ImageBase               00400000     <linker-defined>
 0001:00000000       __enc$textbss$begin        00401000     <linker-defined>
 0001:00010000       __enc$textbss$end          00411000     <linker-defined>
 0002:000046f0       ??0AES@@QAE@XZ             004156f0 f   AES.obj
 0002:0000471e       _strlen                    0041571e f   ucrtd:ucrtbased.dll
 0002:00004730       ??1AES@@QAE@XZ             00415730 f   AES.obj
 0002:00004770       ?AddRoundKey@AES@@QAEXQAY03E0@Z 00415770 f   AES.obj
 0002:00004830       ?Decrypt@AES@@QAEXPADQAY03E1@Z 00415830 f   AES.obj
 0002:00004b90       ?Encrypt@AES@@QAEXPADQAY03E1@Z 00415b90 f   AES.obj
 0002:00004d60       ?FreeFunc@AES@@QAEXPAD@Z   00415d60 f   AES.obj
 0002:00004dd0       ?Inv_AddRoundKey@AES@@QAEXQAY03E0@Z 00415dd0 f   AES.obj
 0002:00004e90       ?Inv_KeySchedule@AES@@QAEXQAY03EQAY0BA@EH@Z 00415e90 f   AES.obj
 0002:00005220       ?Inv_MixColumns@AES@@QAEXQAY03E@Z 00416220 f   AES.obj
 0002:00008290       ?print_data@CIDS@@QAEXPBE@Z 00419290 f   IDS.obj
 0002:00008ea0       ?Inv_ShiftRows@AES@@QAEXQAY03E@Z 00419ea0 f   AES.obj
 0002:00008fb0       ?Inv_SubBytes@AES@@QAEXQAY03EQAY0BA@E@Z 00419fb0 f   AES.obj
 0002:00009090       ?KeySchedule@AES@@QAEXQAY03EQAY0BA@EH@Z 0041a090 f   AES.obj
 0002:00009420       ?MixColumns@AES@@QAEXQAY03E@Z 0041a420 f   AES.obj
 0002:00009760       ?ShiftRows@AES@@QAEXQAY03E@Z 0041a760 f   AES.obj
 0002:00009870       ?SubBytes@AES@@QAEXQAY03EQAY0BA@E@Z 0041a870 f   AES.obj
 0002:00009950       ?__empty_global_delete@@YAXPAX@Z 0041a950 f i AES.obj
 0002:00009980       ?__empty_global_delete@@YAXPAXI@Z 0041a980 f i AES.obj
 0002:00009980       ?__global_delete@@YAXPAXI@Z 0041a980 f i AES.obj
 0002:000099b0       ??0ClientSock@@QAE@XZ      0041a9b0 f   ClientSock.obj
 0002:00009a10       ??1ClientSock@@UAE@XZ      0041aa10 f   ClientSock.obj
 0002:00009a70       ??_EClientSock@@UAEPAXI@Z  0041aa70 f i ClientSock.obj
 0002:00009a70       ??_GClientSock@@UAEPAXI@Z  0041aa70 f i ClientSock.obj
 0002:00009b00       ?OnReceive@ClientSock@@UAEXH@Z 0041ab00 f   ClientSock.obj
 0002:00009b80       ?OnBnClickedDb@CDB_Check@@QAEXXZ 0041ab80 f   DB_Check.obj
 0002:00009c70       ?OnCbnSelchangeDbdate@CDB_Check@@QAEXXZ 0041ac70 f   DB_Check.obj
 0002:00009d60       ??$__vcrt_va_start_verify_argument_type@QB_W@@YAXXZ 0041ad60 f i DB_Check.obj
 0002:00009d90       ??0?$CTraceCategoryEx@$0CAAA@$0A@@ATL@@QAE@PBD@Z 0041ad90 f i DB_Check.obj
 0002:00009df0       ??0?$CTraceCategoryEx@$0CAAAA@$0A@@ATL@@QAE@PBD@Z 0041adf0 f i DB_Check.obj
 0002:00009e50       ??0CDB_Check@@QAE@PAVCWnd@@@Z 0041ae50 f   DB_Check.obj
 0002:0000a010       ??1CDB_Check@@UAE@XZ       0041b010 f   DB_Check.obj
 0002:0000a110       ??1CDialogEx@@UAE@XZ       0041b110 f i DB_Check.obj
 0002:0000a190       ??HATL@@YA?AV?$CStringT@DV?$StrTraitMFC_DLL@DV?$ChTraitsCRT@D@ATL@@@@@0@ABV10@PBD@Z 0041b190 f i DB_Check.obj
 0002:0000a350       ??HATL@@YA?AV?$CStringT@DV?$StrTraitMFC_DLL@DV?$ChTraitsCRT@D@ATL@@@@@0@PBDABV10@@Z 0041b350 f i DB_Check.obj
 0002:0000a510       ??_G?$CStringT@DV?$StrTraitMFC_DLL@DV?$ChTraitsCRT@D@ATL@@@@@ATL@@QAEPAXI@Z 0041b510 f i DB_Check.obj
 0002:0000a590       ??_ECDB_Check@@UAEPAXI@Z   0041b590 f i DB_Check.obj
 0002:0000a590       ??_GCDB_Check@@UAEPAXI@Z   0041b590 f i DB_Check.obj
 0002:0000a620       ?DestroyTherad2@CDB_Check@@QAE_NXZ 0041b620 f   DB_Check.obj
 0002:0000a740       ?DestroyTherad@CDB_Check@@QAE_NXZ 0041b740 f   DB_Check.obj
 0002:0000a860       ?DoDataExchange@CDB_Check@@MAEXPAVCDataExchange@@@Z 0041b860 f   DB_Check.obj
 0002:0000a8f0       ?GetMessageMap@CDB_Check@@MBEPBUAFX_MSGMAP@@XZ 0041b8f0 f   DB_Check.obj
 0002:0000a940       ?GetRuntimeClass@CDB_Check@@UBEPAUCRuntimeClass@@XZ 0041b940 f   DB_Check.obj
 0002:0000a980       ?GetThisClass@CDB_Check@@SGPAUCRuntimeClass@@XZ 0041b980 f   DB_Check.obj
 0002:0000a9c0       ?GetThisMessageMap@CDB_Check@@KGPBUAFX_MSGMAP@@XZ 0041b9c0 f   DB_Check.obj
 0002:0000aa00       ?OnInitDialog@CDB_Check@@UAEHXZ 0041ba00 f   DB_Check.obj
 0002:0000ade0       ?RegisterCategory@CTrace@ATL@@SAXPBDI@Z 0041bde0 f i DB_Check.obj
 0002:0000af80       ?ThreadFirst@CDB_Check@@SAIPAX@Z 0041bf80 f   DB_Check.obj
 0002:0000afe0       ?ThreadFunc2@CDB_Check@@QAEXXZ 0041bfe0 f   DB_Check.obj
 0002:0000c310       ?ThreadFunc@CDB_Check@@QAEXXZ 0041d310 f   DB_Check.obj
 0002:0000d750       ?ThreadSecond@CDB_Check@@SAIPAX@Z 0041e750 f   DB_Check.obj
 0002:0000d7b0       ?_GetBaseClass@CDB_Check@@KGPAUCRuntimeClass@@XZ 0041e7b0 f   DB_Check.obj
 0002:0000d800       ___local_stdio_printf_options 0041e800 f i DB_Check.obj
 0002:0000d840       __vswprintf_s_l            0041e840 f i DB_Check.obj
 0002:0000d8f0       _swprintf_s                0041e8f0 f i DB_Check.obj
 0002:0000d970       ?OnBnClickedButton1@CIDS@@QAEXXZ 0041e970 f   IDS.obj
 0002:0000e050       ?OnBnClickedButton2@CIDS@@QAEXXZ 0041f050 f   IDS.obj
 0002:0000e270       ?OnNMDblclkDevice@CIDS@@QAEXPAUtagNMHDR@@PAJ@Z 0041f270 f   IDS.obj
 0002:0000e8e0       ??$__vcrt_va_start_verify_argument_type@QBD@@YAXXZ 0041f8e0 f i IDS.obj
 0002:0000e910       ??0CIDS@@QAE@PAVCWnd@@@Z   0041f910 f   IDS.obj
 0002:0000ea80       ??1CIDS@@UAE@XZ            0041fa80 f   IDS.obj
 0002:0000eb70       ??_ECIDS@@UAEPAXI@Z        0041fb70 f i IDS.obj
 0002:0000eb70       ??_GCIDS@@UAEPAXI@Z        0041fb70 f i IDS.obj
 0002:0000ec00       ?DestroyTherad@CIDS@@QAE_NXZ 0041fc00 f   IDS.obj
 0002:0000ed20       ?DoDataExchange@CIDS@@MAEXPAVCDataExchange@@@Z 0041fd20 f   IDS.obj
 0002:0000ee30       ?GetMessageMap@CIDS@@MBEPBUAFX_MSGMAP@@XZ 0041fe30 f   IDS.obj
 0002:0000ee80       ?GetRuntimeClass@CIDS@@UBEPAUCRuntimeClass@@XZ 0041fe80 f   IDS.obj
 0002:0000eec0       ?GetThisClass@CIDS@@SGPAUCRuntimeClass@@XZ 0041fec0 f   IDS.obj
 0002:0000ef00       ?GetThisMessageMap@CIDS@@KGPBUAFX_MSGMAP@@XZ 0041ff00 f   IDS.obj
 0002:0000ef40       ?OnInitDialog@CIDS@@UAEHXZ 0041ff40 f   IDS.obj
 0002:0000f080       ?ThreadFirst@CIDS@@SAIPAX@Z 00420080 f   IDS.obj
 0002:0000f0e0       ?ThreadFunc@CIDS@@QAEXXZ   004200e0 f   IDS.obj
 0002:0000f260       ?_GetBaseClass@CIDS@@KGPAUCRuntimeClass@@XZ 00420260 f   IDS.obj
 0002:0000f630       ?print_ether_header@CIDS@@QAEXPBE@Z 00420630 f   IDS.obj
 0002:0000fc00       ?print_ip_header@CIDS@@QAEHPBE@Z 00420c00 f   IDS.obj
 0002:000101f0       ?print_tcp_header@CIDS@@QAEHPBE@Z 004211f0 f   IDS.obj
 0002:00010940       __vsnprintf_l              00421940 f i IDS.obj
 0002:000109f0       __vsprintf_l               004219f0 f i IDS.obj
 0002:00010a50       _sprintf                   00421a50 f i IDS.obj
 0002:00010ad0       ??0RSA_CODE@@QAE@XZ        00421ad0 f   RSA_CODE.obj
 0002:00010b10       ??1RSA_CODE@@QAE@XZ        00421b10 f   RSA_CODE.obj
 0002:00010b50       ?Create_Primes@RSA_CODE@@QAEHXZ 00421b50 f   RSA_CODE.obj
 0002:00010cc0       ?Decrypt@RSA_CODE@@QAEXPAHQAH@Z 00421cc0 f   RSA_CODE.obj
 0002:00010e10       ?Encrypt@RSA_CODE@@QAEXPAHQAH@Z 00421e10 f   RSA_CODE.obj
 0002:00010f50       ?FreeFunc@RSA_CODE@@QAEXPAH@Z 00421f50 f   RSA_CODE.obj
 0002:00010fc0       ?Is_Primes@RSA_CODE@@QAE_NH@Z 00421fc0 f   RSA_CODE.obj
 0002:00011050       ?Select_d@RSA_CODE@@QAEHHH@Z 00422050 f   RSA_CODE.obj
 0002:000110d0       ?Select_e@RSA_CODE@@QAEHH@Z 004220d0 f   RSA_CODE.obj
 0002:00011310       ??0ServerSock@@QAE@XZ      00422310 f   ServerSock.obj
 0002:00011370       ??1ServerSock@@UAE@XZ      00422370 f   ServerSock.obj
 0002:000113d0       ??_EServerSock@@UAEPAXI@Z  004223d0 f i ServerSock.obj
 0002:000113d0       ??_GServerSock@@UAEPAXI@Z  004223d0 f i ServerSock.obj
 0002:00011460       ?OnAccept@ServerSock@@UAEXH@Z 00422460 f   ServerSock.obj
 0002:000114d0       ?_AfxInitManaged@@YAHXZ    004224d0 f i stdafx.obj
 0002:00011500       ??$AtlAdd@H@ATL@@YAJPAHHH@Z 00422500 f i stdafx.obj
 0002:00011580       ??$AtlAdd@I@ATL@@YAJPAIII@Z 00422580 f i stdafx.obj
 0002:000115f0       ??$AtlAdd@K@ATL@@YAJPAKKK@Z 004225f0 f i stdafx.obj
 0002:00011660       ??$AtlAlignUp@H@ATL@@YGHHK@Z 00422660 f i stdafx.obj
 0002:000116b0       ??$AtlMultiply@I@ATL@@YAJPAIII@Z 004226b0 f i stdafx.obj
 0002:00011730       ??$AtlMultiply@K@ATL@@YAJPAKKK@Z 00422730 f i stdafx.obj
 0002:000117b0       ??$__vcrt_va_start_verify_argument_type@PBD@@YAXXZ 004227b0 f i stdafx.obj
 0002:000117e0       ??0?$CHeapPtr@DVCCRTAllocator@ATL@@@ATL@@QAE@XZ 004227e0 f i stdafx.obj
 0002:00011840       ??0?$CHeapPtr@_WVCCRTAllocator@ATL@@@ATL@@QAE@XZ 00422840 f i stdafx.obj
 0002:000118a0       ??0?$CHeapPtrBase@DVCCRTAllocator@ATL@@@ATL@@IAE@XZ 004228a0 f i stdafx.obj
 0002:000118f0       ??0?$CHeapPtrBase@_WVCCRTAllocator@ATL@@@ATL@@IAE@XZ 004228f0 f i stdafx.obj
 0002:00011940       ??0?$CSimpleArray@GV?$CSimpleArrayEqualHelper@G@ATL@@@ATL@@QAE@XZ 00422940 f i stdafx.obj
 0002:000119a0       ??0?$CTraceCategoryEx@$00$0A@@ATL@@QAE@PBD@Z 004229a0 f i stdafx.obj
 0002:00011a00       ??0?$CTraceCategoryEx@$01$0A@@ATL@@QAE@PBD@Z 00422a00 f i stdafx.obj
 0002:00011a60       ??0?$CTraceCategoryEx@$03$0A@@ATL@@QAE@PBD@Z 00422a60 f i stdafx.obj
 0002:00011ac0       ??0?$CTraceCategoryEx@$07$0A@@ATL@@QAE@PBD@Z 00422ac0 f i stdafx.obj
 0002:00011b20       ??0?$CTraceCategoryEx@$0BA@$0A@@ATL@@QAE@PBD@Z 00422b20 f i stdafx.obj
 0002:00011b80       ??0?$CTraceCategoryEx@$0BAA@$0A@@ATL@@QAE@PBD@Z 00422b80 f i stdafx.obj
 0002:00011be0       ??0?$CTraceCategoryEx@$0BAAA@$0A@@ATL@@QAE@PBD@Z 00422be0 f i stdafx.obj
 0002:00011c40       ??0?$CTraceCategoryEx@$0BAAAA@$0A@@ATL@@QAE@PBD@Z 00422c40 f i stdafx.obj
 0002:00011ca0       ??0?$CTraceCategoryEx@$0BAAAAA@$0A@@ATL@@QAE@PBD@Z 00422ca0 f i stdafx.obj
 0002:00011d00       ??0?$CTraceCategoryEx@$0CA@$0A@@ATL@@QAE@PBD@Z 00422d00 f i stdafx.obj
 0002:00011d60       ??0?$CTraceCategoryEx@$0CAA@$0A@@ATL@@QAE@PBD@Z 00422d60 f i stdafx.obj
 0002:00011dc0       ??0?$CTraceCategoryEx@$0CAAAAA@$0A@@ATL@@QAE@PBD@Z 00422dc0 f i stdafx.obj
 0002:00011e20       ??0?$CTraceCategoryEx@$0EA@$0A@@ATL@@QAE@PBD@Z 00422e20 f i stdafx.obj
 0002:00011e80       ??0?$CTraceCategoryEx@$0EAA@$0A@@ATL@@QAE@PBD@Z 00422e80 f i stdafx.obj
 0002:00011ee0       ??0?$CTraceCategoryEx@$0EAAA@$0A@@ATL@@QAE@PBD@Z 00422ee0 f i stdafx.obj
 0002:00011f40       ??0?$CTraceCategoryEx@$0EAAAA@$0A@@ATL@@QAE@PBD@Z 00422f40 f i stdafx.obj
 0002:00011fa0       ??0?$CTraceCategoryEx@$0EAAAAA@$0A@@ATL@@QAE@PBD@Z 00422fa0 f i stdafx.obj
 0002:00012000       ??0?$CTraceCategoryEx@$0IA@$0A@@ATL@@QAE@PBD@Z 00423000 f i stdafx.obj
 0002:00012060       ??0?$CTraceCategoryEx@$0IAA@$0A@@ATL@@QAE@PBD@Z 00423060 f i stdafx.obj
 0002:000120c0       ??0?$CTraceCategoryEx@$0IAAA@$0A@@ATL@@QAE@PBD@Z 004230c0 f i stdafx.obj
 0002:00012120       ??0?$CTraceCategoryEx@$0IAAAA@$0A@@ATL@@QAE@PBD@Z 00423120 f i stdafx.obj
 0002:00012180       ??0CAtlComModule@ATL@@QAE@XZ 00423180 f i stdafx.obj
 0002:000122b0       ??0CAtlStringMgr@ATL@@QAE@PAUIAtlMemMgr@1@@Z 004232b0 f i stdafx.obj
 0002:00012340       ??0CAtlWinModule@ATL@@QAE@XZ 00423340 f i stdafx.obj
 0002:00012410       ??0CComCriticalSection@ATL@@QAE@XZ 00423410 f i stdafx.obj
 0002:00012470       ??0CDCCache@CImage@ATL@@QAE@XZ 00423470 f i stdafx.obj
 0002:000124e0       ??0CInitGDIPlus@CImage@ATL@@QAE@XZ 004234e0 f i stdafx.obj
 0002:00012590       ??0CNilStringData@ATL@@QAE@XZ 00423590 f i stdafx.obj
 0002:00012630       ??0CPreserveLastError@ATL@@QAE@XZ 00423630 f i stdafx.obj
 0002:000126a0       ??0CTraceFileAndLineInfo@ATL@@QAE@PBDH@Z 004236a0 f i stdafx.obj
 0002:000126f0       ??0CWin32Heap@ATL@@QAE@PAX@Z 004236f0 f i stdafx.obj
 0002:000127a0       ??0_ATL_COM_MODULE70@ATL@@QAE@XZ 004237a0 f i stdafx.obj
 0002:00012800       ??0_ATL_WIN_MODULE70@ATL@@QAE@XZ 00423800 f i stdafx.obj
 0002:000128b0       ??1?$CHeapPtr@DVCCRTAllocator@ATL@@@ATL@@QAE@XZ 004238b0 f i stdafx.obj
 0002:00012900       ??1?$CHeapPtr@_WVCCRTAllocator@ATL@@@ATL@@QAE@XZ 00423900 f i stdafx.obj
 0002:00012950       ??1?$CHeapPtrBase@DVCCRTAllocator@ATL@@@ATL@@QAE@XZ 00423950 f i stdafx.obj
 0002:000129a0       ??1?$CHeapPtrBase@_WVCCRTAllocator@ATL@@@ATL@@QAE@XZ 004239a0 f i stdafx.obj
 0002:000129f0       ??1?$CSimpleArray@GV?$CSimpleArrayEqualHelper@G@ATL@@@ATL@@QAE@XZ 004239f0 f i stdafx.obj
 0002:00012a80       ??1CAtlComModule@ATL@@QAE@XZ 00423a80 f i stdafx.obj
 0002:00012b10       ??1CAtlStringMgr@ATL@@UAE@XZ 00423b10 f i stdafx.obj
 0002:00012b60       ??1CAtlWinModule@ATL@@QAE@XZ 00423b60 f i stdafx.obj
 0002:00012bf0       ??1CComCriticalSection@ATL@@QAE@XZ 00423bf0 f i stdafx.obj
 0002:00012c30       ??1CDCCache@CImage@ATL@@QAE@XZ 00423c30 f i stdafx.obj
 0002:00012cd0       ??1CInitGDIPlus@CImage@ATL@@QAE@XZ 00423cd0 f i stdafx.obj
 0002:00012d40       ??1CPreserveLastError@ATL@@QAE@XZ 00423d40 f i stdafx.obj
 0002:00012da0       ??1CWin32Heap@ATL@@UAE@XZ  00423da0 f i stdafx.obj
 0002:00012e70       ??1_ATL_COM_MODULE70@ATL@@QAE@XZ 00423e70 f i stdafx.obj
 0002:00012ed0       ??1_ATL_WIN_MODULE70@ATL@@QAE@XZ 00423ed0 f i stdafx.obj
 0002:00012f30       ??A?$CSimpleArray@GV?$CSimpleArrayEqualHelper@G@ATL@@@ATL@@QAEAAGH@Z 00423f30 f i stdafx.obj
 0002:00013000       ??B?$CHeapPtrBase@DVCCRTAllocator@ATL@@@ATL@@QBEPADXZ 00424000 f i stdafx.obj
 0002:00013040       ??B?$CHeapPtrBase@_WVCCRTAllocator@ATL@@@ATL@@QBEPA_WXZ 00424040 f i stdafx.obj
 0002:00013080       ??B?$CTraceCategoryEx@$01$0A@@ATL@@QAEIXZ 00424080 f i stdafx.obj
 0002:000130c0       ??B?$CTraceCategoryEx@$0CA@$0A@@ATL@@QAEIXZ 004240c0 f i stdafx.obj
 0002:00013100       ??RCTraceFileAndLineInfo@ATL@@QBAXHIPBDZZ 00424100 f i stdafx.obj
 0002:00013230       ??_ECAtlStringMgr@ATL@@UAEPAXI@Z 00424230 f i stdafx.obj
 0002:00013230       ??_GCAtlStringMgr@ATL@@UAEPAXI@Z 00424230 f i stdafx.obj
 0002:000132a0       ??_ECWin32Heap@ATL@@UAEPAXI@Z 004242a0 f i stdafx.obj
 0002:000132a0       ??_GCWin32Heap@ATL@@UAEPAXI@Z 004242a0 f i stdafx.obj
 0002:00013310       ??_H@YGXPAXIIP6EPAX0@Z@Z   00424310 f i stdafx.obj
 0002:000133c0       ?AddRef@CStringData@ATL@@QAEXXZ 004243c0 f i stdafx.obj
 0002:00013460       ?Allocate@?$CHeapPtr@DVCCRTAllocator@ATL@@@ATL@@QAE_NI@Z 00424460 f i stdafx.obj
 0002:00013530       ?Allocate@?$CHeapPtr@_WVCCRTAllocator@ATL@@@ATL@@QAE_NI@Z 00424530 f i stdafx.obj
 0002:00013600       ?Allocate@CAtlStringMgr@ATL@@UAEPAUCStringData@2@HH@Z 00424600 f i stdafx.obj
 0002:000138b0       ?Allocate@CCRTAllocator@ATL@@SAPAXI@Z 004248b0 f i stdafx.obj
 0002:00013910       ?Allocate@CWin32Heap@ATL@@UAEPAXI@Z 00424910 f i stdafx.obj
 0002:00013980       ?AllocateBytes@?$CHeapPtrBase@DVCCRTAllocator@ATL@@@ATL@@QAE_NI@Z 00424980 f i stdafx.obj
 0002:00013a40       ?AllocateBytes@?$CHeapPtrBase@_WVCCRTAllocator@ATL@@@ATL@@QAE_NI@Z 00424a40 f i stdafx.obj
 0002:00013b00       ?AtlWinModuleInit@ATL@@YGJPAU_ATL_WIN_MODULE70@1@@Z 00424b00 f i stdafx.obj
 0002:00013c20       ?AtlWinModuleTerm@ATL@@YGJPAU_ATL_WIN_MODULE70@1@PAUHINSTANCE__@@@Z 00424c20 f i stdafx.obj
 0002:00013d20       ?CImageStaticInitialize@CImage@ATL@@CA_NXZ 00424d20 f i stdafx.obj
 0002:00013d70       ?Clone@CAtlStringMgr@ATL@@UAEPAUIAtlStringMgr@2@XZ 00424d70 f i stdafx.obj
 0002:00013db0       ?Free@?$CHeapPtrBase@DVCCRTAllocator@ATL@@@ATL@@QAEXXZ 00424db0 f i stdafx.obj
 0002:00013e20       ?Free@?$CHeapPtrBase@_WVCCRTAllocator@ATL@@@ATL@@QAEXXZ 00424e20 f i stdafx.obj
 0002:00013e90       ?Free@CAtlStringMgr@ATL@@UAEXPAUCStringData@2@@Z 00424e90 f i stdafx.obj
 0002:00013f90       ?Free@CCRTAllocator@ATL@@SAXPAX@Z 00424f90 f i stdafx.obj
 0002:00013ff0       ?Free@CWin32Heap@ATL@@UAEXPAX@Z 00424ff0 f i stdafx.obj
 0002:000140b0       ?GetCDCCacheInstance@CImage@ATL@@CAPAVCDCCache@12@XZ 004250b0 f i stdafx.obj
 0002:00014160       ?GetCategoryName@CTrace@ATL@@CAPA_WI@Z 00425160 f i stdafx.obj
 0002:000141e0       ?GetInitGDIPlusInstance@CImage@ATL@@CAPAVCInitGDIPlus@12@XZ 004251e0 f i stdafx.obj
 0002:00014290       ?GetInstance@CAtlStringMgr@ATL@@SAPAUIAtlStringMgr@2@XZ 00425290 f i stdafx.obj
 0002:000143f0       ?GetModuleInstance@CAtlBaseModule@ATL@@QAEPAUHINSTANCE__@@XZ 004253f0 f i stdafx.obj
 0002:00014430       ?GetNilString@CAtlStringMgr@ATL@@UAEPAUCStringData@2@XZ 00425430 f i stdafx.obj
 0002:00014490       ?GetSize@?$CSimpleArray@GV?$CSimpleArrayEqualHelper@G@ATL@@@ATL@@QBEHXZ 00425490 f i stdafx.obj
 0002:000144d0       ?GetSize@CWin32Heap@ATL@@UAEIPAX@Z 004254d0 f i stdafx.obj
 0002:00014540       ?Init@CComCriticalSection@ATL@@QAEJXZ 00425540 f i stdafx.obj
 0002:000145d0       ?Reallocate@CAtlStringMgr@ATL@@UAEPAUCStringData@2@PAU32@HH@Z 004255d0 f i stdafx.obj
 0002:000148a0       ?Reallocate@CWin32Heap@ATL@@UAEPAXPAXI@Z 004258a0 f i stdafx.obj
 0002:00014970       ?ReleaseGDIPlus@CInitGDIPlus@CImage@ATL@@QAEXXZ 00425970 f i stdafx.obj
 0002:00014a10       ?RemoveAll@?$CSimpleArray@GV?$CSimpleArrayEqualHelper@G@ATL@@@ATL@@QAEXXZ 00425a10 f i stdafx.obj
 0002:00014ad0       ?SetManager@CNilStringData@ATL@@QAEXPAUIAtlStringMgr@2@@Z 00425ad0 f i stdafx.obj
 0002:00014b70       ?StaticInitialize@CAtlStringMgr@ATL@@CA_NXZ 00425b70 f i stdafx.obj
 0002:00014bc0       ?Term@CAtlComModule@ATL@@QAEXXZ 00425bc0 f i stdafx.obj
 0002:00014cc0       ?Term@CAtlWinModule@ATL@@QAEXXZ 00425cc0 f i stdafx.obj
 0002:00014d20       ?Term@CComCriticalSection@ATL@@QAEJXZ 00425d20 f i stdafx.obj
 0002:00014d80       ?TraceV@CTrace@ATL@@CAXPBDHIIPB_W@Z 00425d80 f i stdafx.obj
 0002:000150f0       ?TraceV@CTrace@ATL@@SAXPBDHII0PAD@Z 004260f0 f i stdafx.obj
 0002:000153d0       ?_AtlInitializeCriticalSectionEx@ATL@@YAHPAU_RTL_CRITICAL_SECTION@@KK@Z 004263d0 f i stdafx.obj
 0002:00015430       ?_AtlRaiseException@ATL@@YAXKK@Z 00426430 f i stdafx.obj
 0002:00015490       ?__autoclassinit2@?$CHeapPtr@DVCCRTAllocator@ATL@@@ATL@@QAEXI@Z 00426490 f i stdafx.obj
 0002:000154f0       ?__autoclassinit2@?$CHeapPtr@_WVCCRTAllocator@ATL@@@ATL@@QAEXI@Z 004264f0 f i stdafx.obj
 0002:00015550       ?__autoclassinit2@CAtlStringMgr@ATL@@QAEXI@Z 00426550 f i stdafx.obj
 0002:000155b0       ?__autoclassinit2@CWin32Heap@ATL@@QAEXI@Z 004265b0 f i stdafx.obj
 0002:00015610       _HRESULT_FROM_WIN32        00426610 f i stdafx.obj
 0002:00015680       __vscprintf                00426680 f i stdafx.obj
 0002:000156e0       __vscprintf_l              004266e0 f i stdafx.obj
 0002:00015790       __vsnprintf_s              00426790 f i stdafx.obj
 0002:00015800       __vsnprintf_s_l            00426800 f i stdafx.obj
 0002:000158b0       ??0CTestServerApp@@QAE@XZ  004268b0 f   TestServer.obj
 0002:00015920       ??1CTestServerApp@@UAE@XZ  00426920 f i TestServer.obj
 0002:00015970       ??B?$CTraceCategoryEx@$0IAAAA@$0A@@ATL@@QAEIXZ 00426970 f i TestServer.obj
 0002:000159b0       ??_GCTestServerApp@@UAEPAXI@Z 004269b0 f i TestServer.obj
 0002:000159b0       ??_ECTestServerApp@@UAEPAXI@Z 004269b0 f i TestServer.obj
 0002:00015a40       ?GetApplicationRecoveryParameter@CWinApp@@UAEPAXXZ 00426a40 f i TestServer.obj
 0002:00015a80       ?GetApplicationRecoveryPingInterval@CWinApp@@UAEKXZ 00426a80 f i TestServer.obj
 0002:00015ac0       ?GetApplicationRestartFlags@CWinApp@@UAEKXZ 00426ac0 f i TestServer.obj
 0002:00015b00       ?GetMessageMap@CTestServerApp@@MBEPBUAFX_MSGMAP@@XZ 00426b00 f   TestServer.obj
 0002:00015b50       ?GetThisMessageMap@CTestServerApp@@KGPBUAFX_MSGMAP@@XZ 00426b50 f   TestServer.obj
 0002:00015b90       ?InitInstance@CTestServerApp@@UAEHXZ 00426b90 f   TestServer.obj
 0002:00015ee0       ?ReopenPreviousFilesAtRestart@CWinApp@@UBEHXZ 00426ee0 f i TestServer.obj
 0002:00015f30       ?RestoreAutosavedFilesAtRestart@CWinApp@@UBEHXZ 00426f30 f i TestServer.obj
 0002:00015f80       ?SupportsApplicationRecovery@CWinApp@@UBEHXZ 00426f80 f i TestServer.obj
 0002:00015fd0       ?SupportsAutosaveAtInterval@CWinApp@@UBEHXZ 00426fd0 f i TestServer.obj
 0002:00016020       ?SupportsAutosaveAtRestart@CWinApp@@UBEHXZ 00427020 f i TestServer.obj
 0002:00016070       ?SupportsRestartManager@CWinApp@@UBEHXZ 00427070 f i TestServer.obj
 0002:000160c0       ?__autoclassinit2@CTestServerApp@@QAEXI@Z 004270c0 f i TestServer.obj
 0002:00016120       ?__autoclassinit2@CTestServerDlg@@QAEXI@Z 00427120 f i TestServer.obj
 0002:00016180       ?OnSysCommand@CTestServerDlg@@IAEXIJ@Z 00427180 f   TestServerDlg.obj
 0002:000162c0       ?OnPaint@CTestServerDlg@@IAEXXZ 004272c0 f   TestServerDlg.obj
 0002:000164d0       ?OnQueryDragIcon@CTestServerDlg@@IAEPAUHICON__@@XZ 004274d0 f   TestServerDlg.obj
 0002:00016510       ?OnBnClickedSocketCreate@CTestServerDlg@@QAEXXZ 00427510 f   TestServerDlg.obj
 0002:00016800       ?OnBnClickedSocketClose@CTestServerDlg@@QAEXXZ 00427800 f   TestServerDlg.obj
 0002:00016ad0       ?OnBnClickedDb@CTestServerDlg@@QAEXXZ 00427ad0 f   TestServerDlg.obj
 0002:00016c30       ?OnBnClickedIds@CTestServerDlg@@QAEXXZ 00427c30 f   TestServerDlg.obj
 0002:00016d90       ??0CAboutDlg@@QAE@XZ       00427d90 f   TestServerDlg.obj
 0002:00016e00       ??0CRect@@QAE@XZ           00427e00 f i TestServerDlg.obj
 0002:00016e70       ??0CTestServerDlg@@QAE@PAVCWnd@@@Z 00427e70 f   TestServerDlg.obj
 0002:00017050       ??1CAboutDlg@@UAE@XZ       00428050 f i TestServerDlg.obj
 0002:000170a0       ??1CTestServerDlg@@UAE@XZ  004280a0 f   TestServerDlg.obj
 0002:000172e0       ??_ECAboutDlg@@UAEPAXI@Z   004282e0 f i TestServerDlg.obj
 0002:000172e0       ??_GCAboutDlg@@UAEPAXI@Z   004282e0 f i TestServerDlg.obj
 0002:00017370       ??_ECTestServerDlg@@UAEPAXI@Z 00428370 f i TestServerDlg.obj
 0002:00017370       ??_GCTestServerDlg@@UAEPAXI@Z 00428370 f i TestServerDlg.obj
 0002:00017400       ?AfxAssertFailedLine@@YGHPBDH@Z 00428400 f i TestServerDlg.obj
 0002:00017510       ?DoDataExchange@CAboutDlg@@MAEXPAVCDataExchange@@@Z 00428510 f   TestServerDlg.obj
 0002:00017570       ?DoDataExchange@CTestServerDlg@@MAEXPAVCDataExchange@@@Z 00428570 f   TestServerDlg.obj
 0002:00017600       ?GetMessageMap@CAboutDlg@@MBEPBUAFX_MSGMAP@@XZ 00428600 f   TestServerDlg.obj
 0002:00017650       ?GetMessageMap@CTestServerDlg@@MBEPBUAFX_MSGMAP@@XZ 00428650 f   TestServerDlg.obj
 0002:000176a0       ?GetThisMessageMap@CAboutDlg@@KGPBUAFX_MSGMAP@@XZ 004286a0 f   TestServerDlg.obj
 0002:000176e0       ?GetThisMessageMap@CTestServerDlg@@KGPBUAFX_MSGMAP@@XZ 004286e0 f   TestServerDlg.obj
 0002:00017720       ?Height@CRect@@QBEHXZ      00428720 f i TestServerDlg.obj
 0002:00017770       ?OnAccept@CTestServerDlg@@QAEXXZ 00428770 f   TestServerDlg.obj
 0002:00017b60       ?OnInitDialog@CTestServerDlg@@MAEHXZ 00428b60 f   TestServerDlg.obj
 0002:000180c0       ?OnReceive@CTestServerDlg@@QAEXPAVClientSock@@@Z 004290c0 f   TestServerDlg.obj
 0002:00019350       ?OnSend@CTestServerDlg@@QAEXPADH@Z 0042a350 f   TestServerDlg.obj
 0002:00019410       ?Width@CRect@@QBEHXZ       0042a410 f i TestServerDlg.obj
 0002:00019460       ?__autoclassinit2@CAboutDlg@@QAEXI@Z 0042a460 f i TestServerDlg.obj
 0002:000194c0       ?__autoclassinit2@CPaintDC@@QAEXI@Z 0042a4c0 f i TestServerDlg.obj
 0002:0001957a       _mysql_init@4              0042a57a f   libmysql:libmysql.dll
 0002:00019580       _mysql_real_connect@32     0042a580 f   libmysql:libmysql.dll
 0002:00019586       _mysql_query@8             0042a586 f   libmysql:libmysql.dll
 0002:0001958c       _mysql_store_result@4      0042a58c f   libmysql:libmysql.dll
 0002:00019592       _mysql_free_result@4       0042a592 f   libmysql:libmysql.dll
 0002:00019598       _mysql_fetch_row@4         0042a598 f   libmysql:libmysql.dll
 0002:0001959e       _mysql_close@4             0042a59e f   libmysql:libmysql.dll
 0002:000195a4       ??3@YAXPAX@Z               0042a5a4 f   mfc140d:mfc140d.dll
 0002:000195aa       ??3CObject@@SGXPAX@Z       0042a5aa f   mfc140d:mfc140d.dll
 0002:000195b0       ?Serialize@CObject@@UAEXAAVCArchive@@@Z 0042a5b0 f   mfc140d:mfc140d.dll
 0002:000195b6       ?AfxGetApp@@YGPAVCWinApp@@XZ 0042a5b6 f   mfc140d:mfc140d.dll
 0002:000195bc       ?GetRuntimeClass@CAsyncSocket@@UBEPAUCRuntimeClass@@XZ 0042a5bc f   mfc140d:mfc140d.dll
 0002:000195c2       ??0CAsyncSocket@@QAE@XZ    0042a5c2 f   mfc140d:mfc140d.dll
 0002:000195c8       ?Accept@CAsyncSocket@@UAEHAAV1@PAUsockaddr@@PAH@Z 0042a5c8 f   mfc140d:mfc140d.dll
 0002:000195ce       ?Close@CAsyncSocket@@UAEXXZ 0042a5ce f   mfc140d:mfc140d.dll
 0002:000195d4       ?Receive@CAsyncSocket@@UAEHPAXHH@Z 0042a5d4 f   mfc140d:mfc140d.dll
 0002:000195da       ?Send@CAsyncSocket@@UAEHPBXHH@Z 0042a5da f   mfc140d:mfc140d.dll
 0002:000195e0       ?OnReceive@CAsyncSocket@@MAEXH@Z 0042a5e0 f   mfc140d:mfc140d.dll
 0002:000195e6       ?OnSend@CAsyncSocket@@MAEXH@Z 0042a5e6 f   mfc140d:mfc140d.dll
 0002:000195ec       ?OnOutOfBandData@CAsyncSocket@@MAEXH@Z 0042a5ec f   mfc140d:mfc140d.dll
 0002:000195f2       ?OnAccept@CAsyncSocket@@MAEXH@Z 0042a5f2 f   mfc140d:mfc140d.dll
 0002:000195f8       ?OnConnect@CAsyncSocket@@MAEXH@Z 0042a5f8 f   mfc140d:mfc140d.dll
 0002:000195fe       ?OnClose@CAsyncSocket@@MAEXH@Z 0042a5fe f   mfc140d:mfc140d.dll
 0002:00019604       ??1CAsyncSocket@@UAE@XZ    0042a604 f   mfc140d:mfc140d.dll
 0002:0001960a       ?AssertValid@CAsyncSocket@@UBEXXZ 0042a60a f   mfc140d:mfc140d.dll
 0002:00019610       ?Dump@CAsyncSocket@@UBEXAAVCDumpContext@@@Z 0042a610 f   mfc140d:mfc140d.dll
 0002:00019616       ?ConnectHelper@CAsyncSocket@@MAEHPBUsockaddr@@H@Z 0042a616 f   mfc140d:mfc140d.dll
 0002:0001961c       ?ReceiveFromHelper@CAsyncSocket@@MAEHPAXHPAUsockaddr@@PAHH@Z 0042a61c f   mfc140d:mfc140d.dll
 0002:00019622       ?SendToHelper@CAsyncSocket@@MAEHPBXHPBUsockaddr@@HH@Z 0042a622 f   mfc140d:mfc140d.dll
 0002:00019628       ?GetThisMessageMap@CDialogEx@@KGPBUAFX_MSGMAP@@XZ 0042a628 f   mfc140d:mfc140d.dll
 0002:0001962e       ??2@YAPAXI@Z               0042a62e f   mfc140d:mfc140d.dll
 0002:00019634       ??B?$CSimpleStringT@D$00@ATL@@QBEPBDXZ 0042a634 f   mfc140d:mfc140d.dll
 0002:0001963a       ?Empty@?$CSimpleStringT@D$00@ATL@@QAEXXZ 0042a63a f   mfc140d:mfc140d.dll
 0002:00019640       ?GetBuffer@?$CSimpleStringT@D$00@ATL@@QAEPADH@Z 0042a640 f   mfc140d:mfc140d.dll
 0002:00019646       ?GetLength@?$CSimpleStringT@D$00@ATL@@QBEHXZ 0042a646 f   mfc140d:mfc140d.dll
 0002:0001964c       ?ReleaseBuffer@?$CSimpleStringT@D$00@ATL@@QAEXH@Z 0042a64c f   mfc140d:mfc140d.dll
 0002:00019652       ?StringLength@?$CSimpleStringT@D$00@ATL@@SAHPBD@Z 0042a652 f   mfc140d:mfc140d.dll
 0002:00019658       ?Concatenate@?$CSimpleStringT@D$00@ATL@@KAXAAV12@PBDH1H@Z 0042a658 f   mfc140d:mfc140d.dll
 0002:0001965e       ??0?$CStringT@DV?$StrTraitMFC_DLL@DV?$ChTraitsCRT@D@ATL@@@@@ATL@@QAE@XZ 0042a65e f   mfc140d:mfc140d.dll
 0002:00019664       ??0?$CStringT@DV?$StrTraitMFC_DLL@DV?$ChTraitsCRT@D@ATL@@@@@ATL@@QAE@PAUIAtlStringMgr@1@@Z 0042a664 f   mfc140d:mfc140d.dll
 0002:0001966a       ??0?$CStringT@DV?$StrTraitMFC_DLL@DV?$ChTraitsCRT@D@ATL@@@@@ATL@@QAE@ABV01@@Z 0042a66a f   mfc140d:mfc140d.dll
 0002:00019670       ??0?$CStringT@DV?$StrTraitMFC_DLL@DV?$ChTraitsCRT@D@ATL@@@@@ATL@@QAE@PBD@Z 0042a670 f   mfc140d:mfc140d.dll
 0002:00019676       ??1?$CStringT@DV?$StrTraitMFC_DLL@DV?$ChTraitsCRT@D@ATL@@@@@ATL@@QAE@XZ 0042a676 f   mfc140d:mfc140d.dll
 0002:0001967c       ??4?$CStringT@DV?$StrTraitMFC_DLL@DV?$ChTraitsCRT@D@ATL@@@@@ATL@@QAEAAV01@PBD@Z 0042a67c f   mfc140d:mfc140d.dll
 0002:00019682       ??Y?$CStringT@DV?$StrTraitMFC_DLL@DV?$ChTraitsCRT@D@ATL@@@@@ATL@@QAEAAV01@D@Z 0042a682 f   mfc140d:mfc140d.dll
 0002:00019688       ?GetManager@?$CStringT@DV?$StrTraitMFC_DLL@DV?$ChTraitsCRT@D@ATL@@@@@ATL@@QBEPAUIAtlStringMgr@2@XZ 0042a688 f   mfc140d:mfc140d.dll
 0002:0001968e       ??1CBrush@@UAE@XZ          0042a68e f   mfc140d:mfc140d.dll
 0002:00019694       ?DDX_Control@@YGXPAVCDataExchange@@HAAVCWnd@@@Z 0042a694 f   mfc140d:mfc140d.dll
 0002:0001969a       ?IsInvokeAllowed@CCmdTarget@@UAEHJ@Z 0042a69a f   mfc140d:mfc140d.dll
 0002:000196a0       ?GetDispatchIID@CCmdTarget@@UAEHPAU_GUID@@@Z 0042a6a0 f   mfc140d:mfc140d.dll
 0002:000196a6       ?GetTypeInfoCount@CCmdTarget@@UAEIXZ 0042a6a6 f   mfc140d:mfc140d.dll
 0002:000196ac       ?GetTypeLibCache@CCmdTarget@@UAEPAVCTypeLibCache@@XZ 0042a6ac f   mfc140d:mfc140d.dll
 0002:000196b2       ?GetTypeLib@CCmdTarget@@UAEJKPAPAUITypeLib@@@Z 0042a6b2 f   mfc140d:mfc140d.dll
 0002:000196b8       ?GetCommandMap@CCmdTarget@@MBEPBUAFX_OLECMDMAP@@XZ 0042a6b8 f   mfc140d:mfc140d.dll
 0002:000196be       ?GetDispatchMap@CCmdTarget@@MBEPBUAFX_DISPMAP@@XZ 0042a6be f   mfc140d:mfc140d.dll
 0002:000196c4       ?GetConnectionMap@CCmdTarget@@MBEPBUAFX_CONNECTIONMAP@@XZ 0042a6c4 f   mfc140d:mfc140d.dll
 0002:000196ca       ?GetEventSinkMap@CCmdTarget@@MBEPBUAFX_EVENTSINKMAP@@XZ 0042a6ca f   mfc140d:mfc140d.dll
 0002:000196d0       ?OnCreateAggregates@CCmdTarget@@UAEHXZ 0042a6d0 f   mfc140d:mfc140d.dll
 0002:000196d6       ?GetInterfaceHook@CCmdTarget@@UAEPAUIUnknown@@PBX@Z 0042a6d6 f   mfc140d:mfc140d.dll
 0002:000196dc       ?GetExtraConnectionPoints@CCmdTarget@@MAEHPAVCPtrArray@@@Z 0042a6dc f   mfc140d:mfc140d.dll
 0002:000196e2       ?GetConnectionHook@CCmdTarget@@MAEPAUIConnectionPoint@@ABU_GUID@@@Z 0042a6e2 f   mfc140d:mfc140d.dll
 0002:000196e8       ?PreSubclassWindow@CWnd@@UAEXXZ 0042a6e8 f   mfc140d:mfc140d.dll
 0002:000196ee       ?Create@CWnd@@UAEHPBD0KABUtagRECT@@PAV1@IPAUCCreateContext@@@Z 0042a6ee f   mfc140d:mfc140d.dll
 0002:000196f4       ?CreateEx@CWnd@@UAEHKPBD0KHHHHPAUHWND__@@PAUHMENU__@@PAX@Z 0042a6f4 f   mfc140d:mfc140d.dll
 0002:000196fa       ?CreateEx@CWnd@@UAEHKPBD0KABUtagRECT@@PAV1@IPAX@Z 0042a6fa f   mfc140d:mfc140d.dll
 0002:00019700       ?DestroyWindow@CWnd@@UAEHXZ 0042a700 f   mfc140d:mfc140d.dll
 0002:00019706       ?PreCreateWindow@CWnd@@UAEHAAUtagCREATESTRUCTA@@@Z 0042a706 f   mfc140d:mfc140d.dll
 0002:0001970c       ?CalcWindowRect@CWnd@@UAEXPAUtagRECT@@I@Z 0042a70c f   mfc140d:mfc140d.dll
 0002:00019712       ?GetMenu@CWnd@@UBEPAVCMenu@@XZ 0042a712 f   mfc140d:mfc140d.dll
 0002:00019718       ?SetMenu@CWnd@@UAEHPAVCMenu@@@Z 0042a718 f   mfc140d:mfc140d.dll
 0002:0001971e       ?OnToolHitTest@CWnd@@UBEHVCPoint@@PAUtagTOOLINFOA@@@Z 0042a71e f   mfc140d:mfc140d.dll
 0002:00019724       ?GetScrollBarCtrl@CWnd@@UBEPAVCScrollBar@@H@Z 0042a724 f   mfc140d:mfc140d.dll
 0002:0001972a       ?WinHelpA@CWnd@@UAEXKI@Z   0042a72a f   mfc140d:mfc140d.dll
 0002:00019730       ?HtmlHelpA@CWnd@@UAEXKI@Z  0042a730 f   mfc140d:mfc140d.dll
 0002:00019736       ?WinHelpInternal@CWnd@@UAEXKI@Z 0042a736 f   mfc140d:mfc140d.dll
 0002:0001973c       ?ContinueModal@CWnd@@UAEHXZ 0042a73c f   mfc140d:mfc140d.dll
 0002:00019742       ?EndModalLoop@CWnd@@UAEXH@Z 0042a742 f   mfc140d:mfc140d.dll
 0002:00019748       ?OnDrawIconicThumbnailOrLivePreview@CWnd@@UAEXAAVCDC@@VCRect@@VCSize@@HAAH@Z 0042a748 f   mfc140d:mfc140d.dll
 0002:0001974e       ?GetInterfaceMap@CWnd@@MBEPBUAFX_INTERFACEMAP@@XZ 0042a74e f   mfc140d:mfc140d.dll
 0002:00019754       ?EnsureStdObj@CWnd@@UAEJXZ 0042a754 f   mfc140d:mfc140d.dll
 0002:0001975a       ?get_accParent@CWnd@@UAEJPAPAUIDispatch@@@Z 0042a75a f   mfc140d:mfc140d.dll
 0002:00019760       ?get_accChildCount@CWnd@@UAEJPAJ@Z 0042a760 f   mfc140d:mfc140d.dll
 0002:00019766       ?get_accChild@CWnd@@UAEJUtagVARIANT@@PAPAUIDispatch@@@Z 0042a766 f   mfc140d:mfc140d.dll
 0002:0001976c       ?get_accName@CWnd@@UAEJUtagVARIANT@@PAPA_W@Z 0042a76c f   mfc140d:mfc140d.dll
 0002:00019772       ?get_accValue@CWnd@@UAEJUtagVARIANT@@PAPA_W@Z 0042a772 f   mfc140d:mfc140d.dll
 0002:00019778       ?get_accDescription@CWnd@@UAEJUtagVARIANT@@PAPA_W@Z 0042a778 f   mfc140d:mfc140d.dll
 0002:0001977e       ?get_accRole@CWnd@@UAEJUtagVARIANT@@PAU2@@Z 0042a77e f   mfc140d:mfc140d.dll
 0002:00019784       ?get_accState@CWnd@@UAEJUtagVARIANT@@PAU2@@Z 0042a784 f   mfc140d:mfc140d.dll
 0002:0001978a       ?get_accHelp@CWnd@@UAEJUtagVARIANT@@PAPA_W@Z 0042a78a f   mfc140d:mfc140d.dll
 0002:00019790       ?get_accHelpTopic@CWnd@@UAEJPAPA_WUtagVARIANT@@PAJ@Z 0042a790 f   mfc140d:mfc140d.dll
 0002:00019796       ?get_accKeyboardShortcut@CWnd@@UAEJUtagVARIANT@@PAPA_W@Z 0042a796 f   mfc140d:mfc140d.dll
 0002:0001979c       ?get_accFocus@CWnd@@UAEJPAUtagVARIANT@@@Z 0042a79c f   mfc140d:mfc140d.dll
 0002:000197a2       ?get_accSelection@CWnd@@UAEJPAUtagVARIANT@@@Z 0042a7a2 f   mfc140d:mfc140d.dll
 0002:000197a8       ?get_accDefaultAction@CWnd@@UAEJUtagVARIANT@@PAPA_W@Z 0042a7a8 f   mfc140d:mfc140d.dll
 0002:000197ae       ?accSelect@CWnd@@UAEJJUtagVARIANT@@@Z 0042a7ae f   mfc140d:mfc140d.dll
 0002:000197b4       ?accLocation@CWnd@@UAEJPAJ000UtagVARIANT@@@Z 0042a7b4 f   mfc140d:mfc140d.dll
 0002:000197ba       ?accNavigate@CWnd@@UAEJJUtagVARIANT@@PAU2@@Z 0042a7ba f   mfc140d:mfc140d.dll
 0002:000197c0       ?accHitTest@CWnd@@UAEJJJPAUtagVARIANT@@@Z 0042a7c0 f   mfc140d:mfc140d.dll
 0002:000197c6       ?accDoDefaultAction@CWnd@@UAEJUtagVARIANT@@@Z 0042a7c6 f   mfc140d:mfc140d.dll
 0002:000197cc       ?put_accName@CWnd@@UAEJUtagVARIANT@@PA_W@Z 0042a7cc f   mfc140d:mfc140d.dll
 0002:000197d2       ?put_accValue@CWnd@@UAEJUtagVARIANT@@PA_W@Z 0042a7d2 f   mfc140d:mfc140d.dll
 0002:000197d8       ?SetProxy@CWnd@@UAEJPAUIAccessibleProxy@@@Z 0042a7d8 f   mfc140d:mfc140d.dll
 0002:000197de       ?CreateAccessibleProxy@CWnd@@UAEJIJPAJ@Z 0042a7de f   mfc140d:mfc140d.dll
 0002:000197e4       ?OnNotify@CWnd@@MAEHIJPAJ@Z 0042a7e4 f   mfc140d:mfc140d.dll
 0002:000197ea       ?GetSuperWndProcAddr@CWnd@@MAEPAP6GJPAUHWND__@@IIJ@ZXZ 0042a7ea f   mfc140d:mfc140d.dll
 0002:000197f0       ?DoDataExchange@CWnd@@MAEXPAVCDataExchange@@@Z 0042a7f0 f   mfc140d:mfc140d.dll
 0002:000197f6       ?BeginModalState@CWnd@@UAEXXZ 0042a7f6 f   mfc140d:mfc140d.dll
 0002:000197fc       ?EndModalState@CWnd@@UAEXXZ 0042a7fc f   mfc140d:mfc140d.dll
 0002:00019802       ?OnAmbientProperty@CWnd@@UAEHPAVCOleControlSite@@JPAUtagVARIANT@@@Z 0042a802 f   mfc140d:mfc140d.dll
 0002:00019808       ?WindowProc@CWnd@@MAEJIIJ@Z 0042a808 f   mfc140d:mfc140d.dll
 0002:0001980e       ?OnWndMsg@CWnd@@MAEHIIJPAJ@Z 0042a80e f   mfc140d:mfc140d.dll
 0002:00019814       ?DefWindowProcA@CWnd@@MAEJIIJ@Z 0042a814 f   mfc140d:mfc140d.dll
 0002:0001981a       ?PostNcDestroy@CWnd@@MAEXXZ 0042a81a f   mfc140d:mfc140d.dll
 0002:00019820       ?OnChildNotify@CWnd@@MAEHIIJPAJ@Z 0042a820 f   mfc140d:mfc140d.dll
 0002:00019826       ?OnTouchInputs@CWnd@@MAEHIPAUtagTOUCHINPUT@@@Z 0042a826 f   mfc140d:mfc140d.dll
 0002:0001982c       ?OnTouchInput@CWnd@@MAEHVCPoint@@HHPAUtagTOUCHINPUT@@@Z 0042a82c f   mfc140d:mfc140d.dll
 0002:00019832       ?GetGestureStatus@CWnd@@MAEKVCPoint@@@Z 0042a832 f   mfc140d:mfc140d.dll
 0002:00019838       ?OnGestureZoom@CWnd@@MAEHVCPoint@@J@Z 0042a838 f   mfc140d:mfc140d.dll
 0002:0001983e       ?OnGesturePan@CWnd@@MAEHVCPoint@@0@Z 0042a83e f   mfc140d:mfc140d.dll
 0002:00019844       ?OnGestureRotate@CWnd@@MAEHVCPoint@@N@Z 0042a844 f   mfc140d:mfc140d.dll
 0002:0001984a       ?OnGestureTwoFingerTap@CWnd@@MAEHVCPoint@@@Z 0042a84a f   mfc140d:mfc140d.dll
 0002:00019850       ?OnGesturePressAndTap@CWnd@@MAEHVCPoint@@J@Z 0042a850 f   mfc140d:mfc140d.dll
 0002:00019856       ?ResizeDynamicLayout@CWnd@@MAEXXZ 0042a856 f   mfc140d:mfc140d.dll
 0002:0001985c       ?IsFrameWnd@CWnd@@UBEHXZ   0042a85c f   mfc140d:mfc140d.dll
 0002:00019862       ?OnFinalRelease@CWnd@@UAEXXZ 0042a862 f   mfc140d:mfc140d.dll
 0002:00019868       ?CreateControlContainer@CWnd@@MAEHPAPAVCOleControlContainer@@@Z 0042a868 f   mfc140d:mfc140d.dll
 0002:0001986e       ?CreateControlSite@CWnd@@MAEHPAVCOleControlContainer@@PAPAVCOleControlSite@@IABU_GUID@@@Z 0042a86e f   mfc140d:mfc140d.dll
 0002:00019874       ?Create@CDialog@@UAEHPBDPAVCWnd@@@Z 0042a874 f   mfc140d:mfc140d.dll
 0002:0001987a       ?Create@CDialog@@UAEHIPAVCWnd@@@Z 0042a87a f   mfc140d:mfc140d.dll
 0002:00019880       ?CreateIndirect@CDialog@@UAEHPBUDLGTEMPLATE@@PAVCWnd@@PAX@Z 0042a880 f   mfc140d:mfc140d.dll
 0002:00019886       ?CreateIndirect@CDialog@@UAEHPAXPAVCWnd@@@Z 0042a886 f   mfc140d:mfc140d.dll
 0002:0001988c       ?DoModal@CDialog@@UAEHXZ   0042a88c f   mfc140d:mfc140d.dll
 0002:00019892       ?OnInitDialog@CDialog@@UAEHXZ 0042a892 f   mfc140d:mfc140d.dll
 0002:00019898       ?OnSetFont@CDialog@@UAEXPAVCFont@@@Z 0042a898 f   mfc140d:mfc140d.dll
 0002:0001989e       ?OnOK@CDialog@@MAEXXZ      0042a89e f   mfc140d:mfc140d.dll
 0002:000198a4       ?OnCancel@CDialog@@MAEXXZ  0042a8a4 f   mfc140d:mfc140d.dll
 0002:000198aa       ??1CDialog@@UAE@XZ         0042a8aa f   mfc140d:mfc140d.dll
 0002:000198b0       ?AssertValid@CDialog@@UBEXXZ 0042a8b0 f   mfc140d:mfc140d.dll
 0002:000198b6       ?Dump@CDialog@@UBEXAAVCDumpContext@@@Z 0042a8b6 f   mfc140d:mfc140d.dll
 0002:000198bc       ?OnCmdMsg@CDialog@@UAEHIHPAXPAUAFX_CMDHANDLERINFO@@@Z 0042a8bc f   mfc140d:mfc140d.dll
 0002:000198c2       ?CheckAutoCenter@CDialog@@UAEHXZ 0042a8c2 f   mfc140d:mfc140d.dll
 0002:000198c8       ?SetOccDialogInfo@CDialog@@MAEHPAU_AFX_OCC_DIALOG_INFO@@@Z 0042a8c8 f   mfc140d:mfc140d.dll
 0002:000198ce       ?GetOccDialogInfo@CDialog@@MAEPAU_AFX_OCC_DIALOG_INFO@@XZ 0042a8ce f   mfc140d:mfc140d.dll
 0002:000198d4       ?PreInitDialog@CDialog@@MAEXXZ 0042a8d4 f   mfc140d:mfc140d.dll
 0002:000198da       ??0CComboBox@@QAE@XZ       0042a8da f   mfc140d:mfc140d.dll
 0002:000198e0       ?GetCurSel@CComboBox@@QBEHXZ 0042a8e0 f   mfc140d:mfc140d.dll
 0002:000198e6       ?SetCurSel@CComboBox@@QAEHH@Z 0042a8e6 f   mfc140d:mfc140d.dll
 0002:000198ec       ?GetLBText@CComboBox@@QBEHHPAD@Z 0042a8ec f   mfc140d:mfc140d.dll
 0002:000198f2       ?GetLBTextLen@CComboBox@@QBEHH@Z 0042a8f2 f   mfc140d:mfc140d.dll
 0002:000198f8       ?AddString@CComboBox@@QAEHPBD@Z 0042a8f8 f   mfc140d:mfc140d.dll
 0002:000198fe       ??1CComboBox@@UAE@XZ       0042a8fe f   mfc140d:mfc140d.dll
 0002:00019904       ?ResumeThread@CWinThread@@QAEKXZ 0042a904 f   mfc140d:mfc140d.dll
 0002:0001990a       ?AfxBeginThread@@YGPAVCWinThread@@P6AIPAX@Z0HIKPAU_SECURITY_ATTRIBUTES@@@Z 0042a90a f   mfc140d:mfc140d.dll
 0002:00019910       ?AfxMessageBox@@YGHPBDII@Z 0042a910 f   mfc140d:mfc140d.dll
 0002:00019916       ??0CListCtrl@@QAE@XZ       0042a916 f   mfc140d:mfc140d.dll
 0002:0001991c       ?SetItem@CListCtrl@@QAEHHHIPBDHIIJ@Z 0042a91c f   mfc140d:mfc140d.dll
 0002:00019922       ?InsertItem@CListCtrl@@QAEHHPBD@Z 0042a922 f   mfc140d:mfc140d.dll
 0002:00019928       ?DeleteAllItems@CListCtrl@@QAEHXZ 0042a928 f   mfc140d:mfc140d.dll
 0002:0001992e       ?InsertColumn@CListCtrl@@QAEHHPBDHHH@Z 0042a92e f   mfc140d:mfc140d.dll
 0002:00019934       ??1CListCtrl@@UAE@XZ       0042a934 f   mfc140d:mfc140d.dll
 0002:0001993a       ??1CDialogImpl@@MAE@XZ     0042a93a f   mfc140d:mfc140d.dll
 0002:00019940       ?GetThisClass@CDialogEx@@SGPAUCRuntimeClass@@XZ 0042a940 f   mfc140d:mfc140d.dll
 0002:00019946       ??0CDialogEx@@QAE@IPAVCWnd@@@Z 0042a946 f   mfc140d:mfc140d.dll
 0002:0001994c       ?PreTranslateMessage@CDialogEx@@UAEHPAUtagMSG@@@Z 0042a94c f   mfc140d:mfc140d.dll
 0002:00019952       ?OnCommand@CDialogEx@@MAEHIJ@Z 0042a952 f   mfc140d:mfc140d.dll
 0002:00019958       ??Y?$CStringT@DV?$StrTraitMFC_DLL@DV?$ChTraitsCRT@D@ATL@@@@@ATL@@QAEAAV01@PBD@Z 0042a958 f   mfc140d:mfc140d.dll
 0002:0001995e       ?Format@?$CStringT@DV?$StrTraitMFC_DLL@DV?$ChTraitsCRT@D@ATL@@@@@ATL@@QAAXPBDZZ 0042a95e f   mfc140d:mfc140d.dll
 0002:00019964       ?GetDlgItem@CWnd@@QBEPAV1@H@Z 0042a964 f   mfc140d:mfc140d.dll
 0002:0001996a       ?GetWindowTextLengthA@CWnd@@QBEHXZ 0042a96a f   mfc140d:mfc140d.dll
 0002:00019970       ?EnableWindow@CWnd@@QAEHH@Z 0042a970 f   mfc140d:mfc140d.dll
 0002:00019976       ??0CListBox@@QAE@XZ        0042a976 f   mfc140d:mfc140d.dll
 0002:0001997c       ?SetCurSel@CListBox@@QAEHH@Z 0042a97c f   mfc140d:mfc140d.dll
 0002:00019982       ?InsertString@CListBox@@QAEHHPBD@Z 0042a982 f   mfc140d:mfc140d.dll
 0002:00019988       ??1CListBox@@UAE@XZ        0042a988 f   mfc140d:mfc140d.dll
 0002:0001998e       ??0CEdit@@QAE@XZ           0042a98e f   mfc140d:mfc140d.dll
 0002:00019994       ?SetLimitText@CEdit@@QAEXI@Z 0042a994 f   mfc140d:mfc140d.dll
 0002:0001999a       ?ReplaceSel@CEdit@@QAEXPBDH@Z 0042a99a f   mfc140d:mfc140d.dll
 0002:000199a0       ?SetSel@CEdit@@QAEXHHH@Z   0042a9a0 f   mfc140d:mfc140d.dll
 0002:000199a6       ?Clear@CEdit@@QAEXXZ       0042a9a6 f   mfc140d:mfc140d.dll
 0002:000199ac       ??1CEdit@@UAE@XZ           0042a9ac f   mfc140d:mfc140d.dll
 0002:000199b2       ?GetItemText@CListCtrl@@QBE?AV?$CStringT@DV?$StrTraitMFC_DLL@DV?$ChTraitsCRT@D@ATL@@@@@ATL@@HH@Z 0042a9b2 f   mfc140d:mfc140d.dll
 0002:000199b8       ?OnHelp@CWinApp@@IAEXXZ    0042a9b8 f   mfc140d:mfc140d.dll
 0002:000199be       ?GetThisMessageMap@CWinApp@@KGPBUAFX_MSGMAP@@XZ 0042a9be f   mfc140d:mfc140d.dll
 0002:000199c4       ??2CObject@@SGPAXIPBDH@Z   0042a9c4 f   mfc140d:mfc140d.dll
 0002:000199ca       ??3CObject@@SGXPAXPBDH@Z   0042a9ca f   mfc140d:mfc140d.dll
 0002:000199d0       ?OnCmdMsg@CCmdTarget@@UAEHIHPAXPAUAFX_CMDHANDLERINFO@@@Z 0042a9d0 f   mfc140d:mfc140d.dll
 0002:000199d6       ?OnFinalRelease@CCmdTarget@@UAEXXZ 0042a9d6 f   mfc140d:mfc140d.dll
 0002:000199dc       ?GetInterfaceMap@CCmdTarget@@MBEPBUAFX_INTERFACEMAP@@XZ 0042a9dc f   mfc140d:mfc140d.dll
 0002:000199e2       ?PreTranslateMessage@CWinThread@@UAEHPAUtagMSG@@@Z 0042a9e2 f   mfc140d:mfc140d.dll
 0002:000199e8       ?PumpMessage@CWinThread@@UAEHXZ 0042a9e8 f   mfc140d:mfc140d.dll
 0002:000199ee       ?IsIdleMessage@CWinThread@@UAEHPAUtagMSG@@@Z 0042a9ee f   mfc140d:mfc140d.dll
 0002:000199f4       ?ProcessMessageFilter@CWinThread@@UAEHHPAUtagMSG@@@Z 0042a9f4 f   mfc140d:mfc140d.dll
 0002:000199fa       ?GetMainWnd@CWinThread@@UAEPAVCWnd@@XZ 0042a9fa f   mfc140d:mfc140d.dll
 0002:00019a00       ?Delete@CWinThread@@UAEXXZ 0042aa00 f   mfc140d:mfc140d.dll
 0002:00019a06       ?GetRuntimeClass@CWinApp@@UBEPAUCRuntimeClass@@XZ 0042aa06 f   mfc140d:mfc140d.dll
 0002:00019a0c       ??0CWinApp@@QAE@PBD@Z      0042aa0c f   mfc140d:mfc140d.dll
 0002:00019a12       ?SetRegistryKey@CWinApp@@IAEXPBD@Z 0042aa12 f   mfc140d:mfc140d.dll
 0002:00019a18       ?GetProfileIntA@CWinApp@@UAEIPBD0H@Z 0042aa18 f   mfc140d:mfc140d.dll
 0002:00019a1e       ?WriteProfileInt@CWinApp@@UAEHPBD0H@Z 0042aa1e f   mfc140d:mfc140d.dll
 0002:00019a24       ?GetProfileStringA@CWinApp@@UAE?AV?$CStringT@DV?$StrTraitMFC_DLL@DV?$ChTraitsCRT@D@ATL@@@@@ATL@@PBD00@Z 0042aa24 f   mfc140d:mfc140d.dll
 0002:00019a2a       ?WriteProfileStringA@CWinApp@@UAEHPBD00@Z 0042aa2a f   mfc140d:mfc140d.dll
 0002:00019a30       ?GetProfileBinary@CWinApp@@UAEHPBD0PAPAEPAI@Z 0042aa30 f   mfc140d:mfc140d.dll
 0002:00019a36       ?WriteProfileBinary@CWinApp@@UAEHPBD0PAEI@Z 0042aa36 f   mfc140d:mfc140d.dll
 0002:00019a3c       ?InitLibId@CWinApp@@UAEXXZ 0042aa3c f   mfc140d:mfc140d.dll
 0002:00019a42       ?Register@CWinApp@@UAEHXZ  0042aa42 f   mfc140d:mfc140d.dll
 0002:00019a48       ?Unregister@CWinApp@@UAEHXZ 0042aa48 f   mfc140d:mfc140d.dll
 0002:00019a4e       ?OpenDocumentFile@CWinApp@@UAEPAVCDocument@@PBD@Z 0042aa4e f   mfc140d:mfc140d.dll
 0002:00019a54       ?OpenDocumentFile@CWinApp@@UAEPAVCDocument@@PBDH@Z 0042aa54 f   mfc140d:mfc140d.dll
 0002:00019a5a       ?AddToRecentFileList@CWinApp@@UAEXPBD@Z 0042aa5a f   mfc140d:mfc140d.dll
 0002:00019a60       ?InitApplication@CWinApp@@UAEHXZ 0042aa60 f   mfc140d:mfc140d.dll
 0002:00019a66       ?SaveAllModified@CWinApp@@UAEHXZ 0042aa66 f   mfc140d:mfc140d.dll
 0002:00019a6c       ?DoMessageBox@CWinApp@@UAEHPBDII@Z 0042aa6c f   mfc140d:mfc140d.dll
 0002:00019a72       ?DoWaitCursor@CWinApp@@UAEXH@Z 0042aa72 f   mfc140d:mfc140d.dll
 0002:00019a78       ?OnDDECommand@CWinApp@@UAEHPAD@Z 0042aa78 f   mfc140d:mfc140d.dll
 0002:00019a7e       ?WinHelpA@CWinApp@@UAEXKI@Z 0042aa7e f   mfc140d:mfc140d.dll
 0002:00019a84       ?HtmlHelpA@CWinApp@@UAEXKI@Z 0042aa84 f   mfc140d:mfc140d.dll
 0002:00019a8a       ?WinHelpInternal@CWinApp@@UAEXKI@Z 0042aa8a f   mfc140d:mfc140d.dll
 0002:00019a90       ?RegisterWithRestartManager@CWinApp@@UAEJHABV?$CStringT@DV?$StrTraitMFC_DLL@DV?$ChTraitsCRT@D@ATL@@@@@ATL@@@Z 0042aa90 f   mfc140d:mfc140d.dll
 0002:00019a96       ?RegisterWithRestartManager@CWinApp@@UAEJPB_WKP6GKPAX@Z1KK@Z 0042aa96 f   mfc140d:mfc140d.dll
 0002:00019a9c       ?ApplicationRecoveryCallback@CWinApp@@UAEKPAX@Z 0042aa9c f   mfc140d:mfc140d.dll
 0002:00019aa2       ?GetDataRecoveryHandler@CWinApp@@UAEPAVCDataRecoveryHandler@@XZ 0042aaa2 f   mfc140d:mfc140d.dll
 0002:00019aa8       ?IsTaskbarInteractionEnabled@CWinApp@@UAEHXZ 0042aaa8 f   mfc140d:mfc140d.dll
 0002:00019aae       ?InitInstance@CWinApp@@UAEHXZ 0042aaae f   mfc140d:mfc140d.dll
 0002:00019ab4       ?ExitInstance@CWinApp@@UAEHXZ 0042aab4 f   mfc140d:mfc140d.dll
 0002:00019aba       ?RestartInstance@CWinApp@@UAEHXZ 0042aaba f   mfc140d:mfc140d.dll
 0002:00019ac0       ?Run@CWinApp@@UAEHXZ       0042aac0 f   mfc140d:mfc140d.dll
 0002:00019ac6       ?OnIdle@CWinApp@@UAEHJ@Z   0042aac6 f   mfc140d:mfc140d.dll
 0002:00019acc       ?ProcessWndProcException@CWinApp@@UAEJPAVCException@@PBUtagMSG@@@Z 0042aacc f   mfc140d:mfc140d.dll
 0002:00019ad2       ?LoadAppLangResourceDLL@CWinApp@@UAEPAUHINSTANCE__@@XZ 0042aad2 f   mfc140d:mfc140d.dll
 0002:00019ad8       ??1CWinApp@@UAE@XZ         0042aad8 f   mfc140d:mfc140d.dll
 0002:00019ade       ?AssertValid@CWinApp@@UBEXXZ 0042aade f   mfc140d:mfc140d.dll
 0002:00019ae4       ?Dump@CWinApp@@UBEXAAVCDumpContext@@@Z 0042aae4 f   mfc140d:mfc140d.dll
 0002:00019aea       ?LoadSysPolicies@CWinApp@@UAEHXZ 0042aaea f   mfc140d:mfc140d.dll
 0002:00019af0       ?AfxEnableControlContainer@@YAXPAVCOccManager@@@Z 0042aaf0 f   mfc140d:mfc140d.dll
 0002:00019af6       ?SetDefaultManager@CMFCVisualManager@@SGXPAUCRuntimeClass@@@Z 0042aaf6 f   mfc140d:mfc140d.dll
 0002:00019afc       ??0CShellManager@@QAE@XZ   0042aafc f   mfc140d:mfc140d.dll
 0002:00019b02       ?GetThisClass@CMFCVisualManagerWindows@@SGPAUCRuntimeClass@@XZ 0042ab02 f   mfc140d:mfc140d.dll
 0002:00019b08       ?IsEmpty@?$CSimpleStringT@D$00@ATL@@QBE_NXZ 0042ab08 f   mfc140d:mfc140d.dll
 0002:00019b0e       ??4?$CStringT@DV?$StrTraitMFC_DLL@DV?$ChTraitsCRT@D@ATL@@@@@ATL@@QAEAAV01@ABV01@@Z 0042ab0e f   mfc140d:mfc140d.dll
 0002:00019b14       ??Y?$CStringT@DV?$StrTraitMFC_DLL@DV?$ChTraitsCRT@D@ATL@@@@@ATL@@QAEAAV01@ABV?$CSimpleStringT@D$00@1@@Z 0042ab14 f   mfc140d:mfc140d.dll
 0002:00019b1a       ?LoadStringA@?$CStringT@DV?$StrTraitMFC_DLL@DV?$ChTraitsCRT@D@ATL@@@@@ATL@@QAEHI@Z 0042ab1a f   mfc140d:mfc140d.dll
 0002:00019b20       ??2@YAPAXIPBDH@Z           0042ab20 f   mfc140d:mfc140d.dll
 0002:00019b26       ??3@YAXPAXPBDH@Z           0042ab26 f   mfc140d:mfc140d.dll
 0002:00019b2c       ??_U@YAPAXIPBDH@Z          0042ab2c f   mfc140d:mfc140d.dll
 0002:00019b32       ?GetSafeHdc@CDC@@QBEPAUHDC__@@XZ 0042ab32 f   mfc140d:mfc140d.dll
 0002:00019b38       ?DrawIcon@CDC@@QAEHHHPAUHICON__@@@Z 0042ab38 f   mfc140d:mfc140d.dll
 0002:00019b3e       ??0CPaintDC@@QAE@PAVCWnd@@@Z 0042ab3e f   mfc140d:mfc140d.dll
 0002:00019b44       ??1CPaintDC@@UAE@XZ        0042ab44 f   mfc140d:mfc140d.dll
 0002:00019b4a       ?AppendMenuA@CMenu@@QAEHIIPBD@Z 0042ab4a f   mfc140d:mfc140d.dll
 0002:00019b50       ?SendMessageA@CWnd@@QBEJIIJ@Z 0042ab50 f   mfc140d:mfc140d.dll
 0002:00019b56       ?GetSystemMenu@CWnd@@QBEPAVCMenu@@H@Z 0042ab56 f   mfc140d:mfc140d.dll
 0002:00019b5c       ?IsIconic@CWnd@@QBEHXZ     0042ab5c f   mfc140d:mfc140d.dll
 0002:00019b62       ?GetClientRect@CWnd@@QBEXPAUtagRECT@@@Z 0042ab62 f   mfc140d:mfc140d.dll
 0002:00019b68       ?ShowWindow@CWnd@@QAEHH@Z  0042ab68 f   mfc140d:mfc140d.dll
 0002:00019b6e       ?SetDlgItemTextA@CWnd@@QAEXHPBD@Z 0042ab6e f   mfc140d:mfc140d.dll
 0002:00019b74       ?SetIcon@CWnd@@QAEPAUHICON__@@PAU2@H@Z 0042ab74 f   mfc140d:mfc140d.dll
 0002:00019b7a       ?UpdateData@CWnd@@QAEHH@Z  0042ab7a f   mfc140d:mfc140d.dll
 0002:00019b80       ?OnSysCommand@CWnd@@IAEXIJ@Z 0042ab80 f   mfc140d:mfc140d.dll
 0002:00019b86       ?OnPaint@CDialog@@IAEXXZ   0042ab86 f   mfc140d:mfc140d.dll
 0002:00019b8c       ?LoadIconA@CWinApp@@QBEPAUHICON__@@I@Z 0042ab8c f   mfc140d:mfc140d.dll
 0002:00019b92       ?GetRuntimeClass@CDialogEx@@UBEPAUCRuntimeClass@@XZ 0042ab92 f   mfc140d:mfc140d.dll
 0002:00019b98       ?Create@CAsyncSocket@@QAEHIHJPBD@Z 0042ab98 f   mfc140d:mfc140d.dll
 0002:00019b9e       ?GetPeerName@CAsyncSocket@@QAEHAAV?$CStringT@DV?$StrTraitMFC_DLL@DV?$ChTraitsCRT@D@ATL@@@@@ATL@@AAI@Z 0042ab9e f   mfc140d:mfc140d.dll
 0002:00019ba4       ?IOCtl@CAsyncSocket@@QAEHJPAK@Z 0042aba4 f   mfc140d:mfc140d.dll
 0002:00019baa       ?Listen@CAsyncSocket@@QAEHH@Z 0042abaa f   mfc140d:mfc140d.dll
 0002:00019bb0       ??1CComBSTR@ATL@@QAE@XZ    0042abb0 f i mfcs140d:nolib.obj
 0002:00019bf0       ??1stringdispid@CComTypeInfoHolder@ATL@@QAE@XZ 0042abf0 f i mfcs140d:nolib.obj
 0002:00019c20       ??_Estringdispid@CComTypeInfoHolder@ATL@@QAEPAXI@Z 0042ac20 f i mfcs140d:nolib.obj
 0002:00019d00       _IsolationAwareActivateActCtx@8 0042ad00 f i mfcs140d:nolib.obj
 0002:00019da0       _IsolationAwareCreateActCtxW@4 0042ada0 f i mfcs140d:nolib.obj
 0002:00019e30       _IsolationAwareDeactivateActCtx@8 0042ae30 f i mfcs140d:nolib.obj
 0002:00019ed0       _IsolationAwareFindActCtxSectionStringW@20 0042aed0 f i mfcs140d:nolib.obj
 0002:00019f80       _IsolationAwarePrivatenPgViNgRzlnPgpgk@4 0042af80 f i mfcs140d:nolib.obj
 0002:0001a090       _IsolationAwarePrivatezltRgCebPnQQeRff@12 0042b090 f i mfcs140d:nolib.obj
 0002:0001a140       _IsolationAwarePrivatezltRgzbQhYRuNaQYRJ@4 0042b140 f i mfcs140d:nolib.obj
 0002:0001a170       _IsolationAwarePrivatezltRgzbQhYRuNaQYRn@4 0042b170 f i mfcs140d:nolib.obj
 0002:0001a1a0       _IsolationAwareQueryActCtxW@28 0042b1a0 f i mfcs140d:nolib.obj
 0002:0001a250       _IsolationAwareUnregisterClassA@8 0042b250 f i mfcs140d:nolib.obj
 0002:0001a450       _WinbaseIsolationAwarePrivatetRgCebPnQQeRff_xReaRYQP_QYY@4 0042b450 f i mfcs140d:nolib.obj
 0002:0001a480       _WinbaseIsolationAwarePrivatetRgzlnPgpgk@0 0042b480 f i mfcs140d:nolib.obj
 0002:0001a8a0       ?AfxSocketInit@@YGHPAUWSAData@@@Z 0042b8a0 f   mfcs140d:sockexp.obj
 0002:0001a8d0       @_RTC_AllocaHelper@12      0042b8d0 f   msvcrtd:_stack_.obj
 0002:0001a910       @_RTC_CheckStackVars2@12   0042b910 f   msvcrtd:_stack_.obj
 0002:0001aa20       @_RTC_CheckStackVars@8     0042ba20 f   msvcrtd:_stack_.obj
 0002:0001aa90       __RTC_CheckEsp             0042ba90 f   msvcrtd:_stack_.obj
 0002:0001aac0       @__security_check_cookie@4 0042bac0 f   msvcrtd:_secchk_.obj
 0002:0001aae0       __CRT_RTC_INIT             0042bae0 f   msvcrtd:_init_.obj
 0002:0001aaf0       __CRT_RTC_INITW            0042baf0 f   msvcrtd:_init_.obj
 0002:0001ab00       __RTC_InitBase             0042bb00 f   msvcrtd:_init_.obj
 0002:0001ab40       __RTC_Shutdown             0042bb40 f   msvcrtd:_init_.obj
 0002:0001ab60       ??1type_info@@UAE@XZ       0042bb60 f   msvcrtd:std_type_info_static.obj
 0002:0001ab80       ??_Etype_info@@UAEPAXI@Z   0042bb80 f i msvcrtd:std_type_info_static.obj
 0002:0001ab80       ??_Gtype_info@@UAEPAXI@Z   0042bb80 f i msvcrtd:std_type_info_static.obj
 0002:0001abc0       ??3@YAXPAXI@Z              0042bbc0 f   msvcrtd:delete_scalar_size.obj
 0002:0001abe0       __chkstk                   0042bbe0 f   msvcrtd:chkstk.obj
 0002:0001abe0       __alloca_probe             0042bbe0 f   msvcrtd:chkstk.obj
 0002:0001adc0       ?_RTC_AllocaFailure@@YAXPAXPAU_RTC_ALLOCA_NODE@@H@Z 0042bdc0 f   msvcrtd:_error_.obj
 0002:0001af30       ?_RTC_Failure@@YAXPAXH@Z   0042bf30 f   msvcrtd:_error_.obj
 0002:0001afa0       ?_RTC_StackFailure@@YAXPAXPBD@Z 0042bfa0 f   msvcrtd:_error_.obj
 0002:0001b410       __RTC_UninitUse            0042c410 f   msvcrtd:_error_.obj
 0002:0001b540       __vsprintf_s_l             0042c540 f i msvcrtd:_error_.obj
 0002:0001b580       _sprintf_s                 0042c580 f i msvcrtd:_error_.obj
 0002:0001b5b0       ??$__crt_fast_decode_pointer@PAP6AXXZ@@YAPAP6AXXZQAP6AXXZ@Z 0042c5b0 f i msvcrtd:utility.obj
 0002:0001b5e0       ??$__crt_fast_encode_pointer@PAP6AXXZ@@YAPAP6AXXZQAP6AXXZ@Z 0042c5e0 f i msvcrtd:utility.obj
 0002:0001b620       ?__crt_rotate_pointer_value@@YAIIH@Z 0042c620 f i msvcrtd:utility.obj
 0002:0001b770       _NtCurrentTeb              0042c770 f i msvcrtd:utility.obj
 0002:0001b780       ___scrt_acquire_startup_lock 0042c780 f   msvcrtd:utility.obj
 0002:0001b7e0       ___scrt_dllmain_after_initialize_c 0042c7e0 f   msvcrtd:utility.obj
 0002:0001b810       ___scrt_dllmain_before_initialize_c 0042c810 f   msvcrtd:utility.obj
 0002:0001b840       ___scrt_dllmain_crt_thread_attach 0042c840 f   msvcrtd:utility.obj
 0002:0001b880       ___scrt_dllmain_crt_thread_detach 0042c880 f   msvcrtd:utility.obj
 0002:0001b8a0       ___scrt_dllmain_exception_filter 0042c8a0 f   msvcrtd:utility.obj
 0002:0001b900       ___scrt_dllmain_uninitialize_c 0042c900 f   msvcrtd:utility.obj
 0002:0001b940       ___scrt_dllmain_uninitialize_critical 0042c940 f   msvcrtd:utility.obj
 0002:0001b960       ___scrt_initialize_crt     0042c960 f   msvcrtd:utility.obj
 0002:0001b9c0       ___scrt_initialize_onexit_tables 0042c9c0 f   msvcrtd:utility.obj
 0002:0001bac0       ___scrt_is_nonwritable_in_current_image 0042cac0 f   msvcrtd:utility.obj
 0002:0001bc40       ___scrt_release_startup_lock 0042cc40 f   msvcrtd:utility.obj
 0002:0001bc70       ___scrt_uninitialize_crt   0042cc70 f   msvcrtd:utility.obj
 0002:0001bcc0       __onexit                   0042ccc0 f   msvcrtd:utility.obj
 0002:0001bd50       _at_quick_exit             0042cd50 f   msvcrtd:utility.obj
 0002:0001bdb0       _atexit                    0042cdb0 f   msvcrtd:utility.obj
 0002:0001bf30       ??$__crt_fast_decode_pointer@P6GHPAU_RTL_CONDITION_VARIABLE@@PAU_RTL_CRITICAL_SECTION@@K@Z@@YAP6GHPAU_RTL_CONDITION_VARIABLE@@PAU_RTL_CRITICAL_SECTION@@K@ZQ6GH01K@Z@Z 0042cf30 f i msvcrtd:thread_safe_statics.obj
 0002:0001bf60       ??$__crt_fast_decode_pointer@P6GXPAU_RTL_CONDITION_VARIABLE@@@Z@@YAP6GXPAU_RTL_CONDITION_VARIABLE@@@ZQ6GX0@Z@Z 0042cf60 f i msvcrtd:thread_safe_statics.obj
 0002:0001bf90       ??$__crt_fast_encode_pointer@P6GHPAU_RTL_CONDITION_VARIABLE@@PAU_RTL_CRITICAL_SECTION@@K@Z@@YAP6GHPAU_RTL_CONDITION_VARIABLE@@PAU_RTL_CRITICAL_SECTION@@K@ZQ6GH01K@Z@Z 0042cf90 f i msvcrtd:thread_safe_statics.obj
 0002:0001bfd0       ??$__crt_fast_encode_pointer@P6GXPAU_RTL_CONDITION_VARIABLE@@@Z@@YAP6GXPAU_RTL_CONDITION_VARIABLE@@@ZQ6GX0@Z@Z 0042cfd0 f i msvcrtd:thread_safe_statics.obj
 0002:0001c040       __Init_thread_abort        0042d040 f   msvcrtd:thread_safe_statics.obj
 0002:0001c070       __Init_thread_footer       0042d070 f   msvcrtd:thread_safe_statics.obj
 0002:0001c0d0       __Init_thread_header       0042d0d0 f   msvcrtd:thread_safe_statics.obj
 0002:0001c160       __Init_thread_lock         0042d160 f   msvcrtd:thread_safe_statics.obj
 0002:0001c180       __Init_thread_notify       0042d180 f   msvcrtd:thread_safe_statics.obj
 0002:0001c1f0       __Init_thread_unlock       0042d1f0 f   msvcrtd:thread_safe_statics.obj
 0002:0001c210       __Init_thread_wait         0042d210 f   msvcrtd:thread_safe_statics.obj
 0002:0001c6e0       ?configure_argv@__scrt_narrow_argv_policy@@SAHXZ 0042d6e0 f i msvcrtd:exe_winmain.obj
 0002:0001c700       ?get_app_type@__scrt_winmain_policy@@SA?AW4_crt_app_type@@XZ 0042d700 f i msvcrtd:exe_winmain.obj
 0002:0001c750       _WinMainCRTStartup         0042d750 f   msvcrtd:exe_winmain.obj
 0002:0001c760       ??_M@YGXPAXIHP6EX0@Z@Z     0042d760 f   msvcrtd:ehvecdtr.obj
 0002:0001c790       ??_M@YGXPAXIIP6EX0@Z@Z     0042d790 f   msvcrtd:ehvecdtr.obj
 0002:0001c8c0       ?__ArrayUnwind@@YGXPAXIIP6EX0@Z@Z 0042d8c0 f   msvcrtd:ehvecdtr.obj
 0002:0001c990       ??_V@YAXPAXI@Z             0042d990 f   msvcrtd:delete_array_size.obj
 0002:0001c9b0       __except_handler4          0042d9b0 f   msvcrtd:_chandler4gs_.obj
 0002:0001c9e0       ___raise_securityfailure   0042d9e0 f   msvcrtd:gs_report.obj
 0002:0001ca20       ___report_gsfailure        0042da20 f   msvcrtd:gs_report.obj
 0002:0001cb70       ___report_rangecheckfailure 0042db70 f   msvcrtd:gs_report.obj
 0002:0001cb80       ___report_securityfailure  0042db80 f   msvcrtd:gs_report.obj
 0002:0001cc90       ___report_securityfailureEx 0042dc90 f   msvcrtd:gs_report.obj
 0002:0001ce00       ?_RTC_GetErrorFunc@@YAP6AHHPBDH00ZZPBX@Z 0042de00 f   msvcrtd:_userapi_.obj
 0002:0001ce10       ?_RTC_GetErrorFuncW@@YAP6AHHPB_WH00ZZPBX@Z 0042de10 f   msvcrtd:_userapi_.obj
 0002:0001ce20       __RTC_GetErrDesc           0042de20 f   msvcrtd:_userapi_.obj
 0002:0001ce40       __RTC_NumErrors            0042de40 f   msvcrtd:_userapi_.obj
 0002:0001ce50       __RTC_SetErrorFunc         0042de50 f   msvcrtd:_userapi_.obj
 0002:0001ce80       __RTC_SetErrorFuncW        0042de80 f   msvcrtd:_userapi_.obj
 0002:0001ceb0       __RTC_SetErrorType         0042deb0 f   msvcrtd:_userapi_.obj
 0002:0001d4a0       ?_RTC_GetSrcLine@@YAHPAEPA_WKPAH1K@Z 0042e4a0 f   msvcrtd:_pdblkup_.obj
 0002:0001d8d0       @_guard_check_icall@4      0042e8d0 f i msvcrtd:checkcfg.obj
 0002:0001d8f0       ___isa_available_init      0042e8f0 f   msvcrtd:_cpu_disp_.obj
 0002:0001dc80       ___scrt_is_ucrt_dll_in_use 0042ec80 f   msvcrtd:ucrt_detection.obj
 0002:0001dcb0       ___scrt_fastfail           0042ecb0 f   msvcrtd:utility_desktop.obj
 0002:0001de40       ___scrt_get_show_window_mode 0042ee40 f   msvcrtd:utility_desktop.obj
 0002:0001de90       ___scrt_initialize_winrt   0042ee90 f   msvcrtd:utility_desktop.obj
 0002:0001dea0       ___scrt_is_managed_app     0042eea0 f   msvcrtd:utility_desktop.obj
 0002:0001df50       ___scrt_set_unhandled_exception_filter 0042ef50 f   msvcrtd:utility_desktop.obj
 0002:0001df70       ___scrt_unhandled_exception_filter@4 0042ef70 f   msvcrtd:utility_desktop.obj
 0002:0001dff0       __crt_debugger_hook        0042eff0 f   msvcrtd:utility_desktop.obj
 0002:0001e010       ___security_init_cookie    0042f010 f   msvcrtd:gs_support.obj
 0002:0001e130       __matherr                  0042f130 f   msvcrtd:matherr.obj
 0002:0001e140       __get_startup_argv_mode    0042f140 f   msvcrtd:argv_mode.obj
 0002:0001e150       __get_startup_commit_mode  0042f150 f   msvcrtd:commit_mode.obj
 0002:0001e160       __get_startup_file_mode    0042f160 f   msvcrtd:file_mode.obj
 0002:0001e170       __get_startup_new_mode     0042f170 f   msvcrtd:new_mode.obj
 0002:0001e180       __get_startup_thread_locale_mode 0042f180 f   msvcrtd:thread_locale.obj
 0002:0001e190       ?__scrt_initialize_type_info@@YAXXZ 0042f190 f   msvcrtd:tncleanup.obj
 0002:0001e1b0       ?__scrt_uninitialize_type_info@@YAXXZ 0042f1b0 f   msvcrtd:tncleanup.obj
 0002:0001e1d0       __initialize_default_precision 0042f1d0 f   msvcrtd:default_precision.obj
 0002:0001e200       __initialize_invalid_parameter_handler 0042f200 f   msvcrtd:invalid_parameter_handler.obj
 0002:0001e210       __initialize_denormal_control 0042f210 f   msvcrtd:denormal_control.obj
 0002:0001e220       ___local_stdio_scanf_options 0042f220 f i msvcrtd:default_local_stdio_options.obj
 0002:0001e230       ___scrt_initialize_default_local_stdio_options 0042f230 f   msvcrtd:default_local_stdio_options.obj
 0002:0001e280       ___scrt_is_user_matherr_present 0042f280 f   msvcrtd:matherr_detection.obj
 0002:0001e2b0       ___scrt_get_dyn_tls_init_callback 0042f2b0 f   msvcrtd:dyn_tls_init.obj
 0002:0001e2c0       ___scrt_get_dyn_tls_dtor_callback 0042f2c0 f   msvcrtd:dyn_tls_dtor.obj
 0002:0001e2d0       __RTC_Initialize           0042f2d0 f   msvcrtd:_initsect_.obj
 0002:0001e310       __RTC_Terminate            0042f310 f   msvcrtd:_initsect_.obj
 0002:0001e350       ??_V@YAXPAX@Z              0042f350 f   msvcrtd:delete_array.obj
 0002:0001e370       @_guard_check_icall_nop@4  0042f370 f i msvcrtd:guard_support.obj
 0002:0001e380       __guard_icall_checks_enforced 0042f380 f i msvcrtd:guard_support.obj
 0002:0001e3b0       _WaitForSingleObject@8     0042f3b0 f   kernel32:KERNEL32.dll
 0002:0001e3b6       _DecodePointer@4           0042f3b6 f   kernel32:KERNEL32.dll
 0002:0001e3bc       _RaiseException@16         0042f3bc f   kernel32:KERNEL32.dll
 0002:0001e3c2       _GetLastError@0            0042f3c2 f   kernel32:KERNEL32.dll
 0002:0001e3c8       _SetLastError@4            0042f3c8 f   kernel32:KERNEL32.dll
 0002:0001e3ce       _HeapDestroy@4             0042f3ce f   kernel32:KERNEL32.dll
 0002:0001e3d4       _HeapAlloc@12              0042f3d4 f   kernel32:KERNEL32.dll
 0002:0001e3da       _HeapReAlloc@16            0042f3da f   kernel32:KERNEL32.dll
 0002:0001e3e0       _HeapFree@12               0042f3e0 f   kernel32:KERNEL32.dll
 0002:0001e3e6       _HeapSize@12               0042f3e6 f   kernel32:KERNEL32.dll
 0002:0001e3ec       _GetProcessHeap@0          0042f3ec f   kernel32:KERNEL32.dll
 0002:0001e3f2       _EnterCriticalSection@4    0042f3f2 f   kernel32:KERNEL32.dll
 0002:0001e3f8       _LeaveCriticalSection@4    0042f3f8 f   kernel32:KERNEL32.dll
 0002:0001e3fe       _InitializeCriticalSectionEx@12 0042f3fe f   kernel32:KERNEL32.dll
 0002:0001e404       _DeleteCriticalSection@4   0042f404 f   kernel32:KERNEL32.dll
 0002:0001e40a       _MultiByteToWideChar@24    0042f40a f   kernel32:KERNEL32.dll
 0002:0001e410       _OutputDebugStringA@4      0042f410 f   kernel32:KERNEL32.dll
 0002:0001e416       _InitializeCriticalSectionAndSpinCount@8 0042f416 f   kernel32:KERNEL32.dll
 0002:0001e41c       _GetModuleFileNameW@12     0042f41c f   kernel32:KERNEL32.dll
 0002:0001e422       _GetModuleHandleA@4        0042f422 f   kernel32:KERNEL32.dll
 0002:0001e428       _GetModuleHandleW@4        0042f428 f   kernel32:KERNEL32.dll
 0002:0001e42e       _GetProcAddress@8          0042f42e f   kernel32:KERNEL32.dll
 0002:0001e434       _LoadLibraryW@4            0042f434 f   kernel32:KERNEL32.dll
 0002:0001e43a       _IsDebuggerPresent@0       0042f43a f   kernel32:KERNEL32.dll
 0002:0001e440       _WideCharToMultiByte@32    0042f440 f   kernel32:KERNEL32.dll
 0002:0001e446       _CloseHandle@4             0042f446 f   kernel32:KERNEL32.dll
 0002:0001e44c       _SetEvent@4                0042f44c f   kernel32:KERNEL32.dll
 0002:0001e452       _ResetEvent@4              0042f452 f   kernel32:KERNEL32.dll
 0002:0001e458       _WaitForSingleObjectEx@12  0042f458 f   kernel32:KERNEL32.dll
 0002:0001e45e       _CreateEventW@16           0042f45e f   kernel32:KERNEL32.dll
 0002:0001e464       _UnhandledExceptionFilter@4 0042f464 f   kernel32:KERNEL32.dll
 0002:0001e46a       _SetUnhandledExceptionFilter@4 0042f46a f   kernel32:KERNEL32.dll
 0002:0001e470       _GetCurrentProcess@0       0042f470 f   kernel32:KERNEL32.dll
 0002:0001e476       _TerminateProcess@8        0042f476 f   kernel32:KERNEL32.dll
 0002:0001e47c       _IsProcessorFeaturePresent@4 0042f47c f   kernel32:KERNEL32.dll
 0002:0001e482       _VirtualQuery@12           0042f482 f   kernel32:KERNEL32.dll
 0002:0001e488       _FreeLibrary@4             0042f488 f   kernel32:KERNEL32.dll
 0002:0001e48e       _GetStartupInfoW@4         0042f48e f   kernel32:KERNEL32.dll
 0002:0001e494       _QueryPerformanceCounter@4 0042f494 f   kernel32:KERNEL32.dll
 0002:0001e49a       _GetCurrentProcessId@0     0042f49a f   kernel32:KERNEL32.dll
 0002:0001e4a0       _GetCurrentThreadId@0      0042f4a0 f   kernel32:KERNEL32.dll
 0002:0001e4a6       _GetSystemTimeAsFileTime@4 0042f4a6 f   kernel32:KERNEL32.dll
 0002:0001e4ac       _InitializeSListHead@4     0042f4ac f   kernel32:KERNEL32.dll
 0002:0001e4b2       _UnregisterClassA@8        0042f4b2 f   user32:USER32.dll
 0002:0001e4b8       _PeekMessageA@20           0042f4b8 f   user32:USER32.dll
 0002:0001e4be       _PostQuitMessage@4         0042f4be f   user32:USER32.dll
 0002:0001e4c4       _GetSystemMetrics@4        0042f4c4 f   user32:USER32.dll
 0002:0001e4ca       _DeleteDC@4                0042f4ca f   gdi32:GDI32.dll
 0002:0001e4d0       _InitCommonControlsEx@4    0042f4d0 f   comctl32:COMCTL32.dll
 0002:0001e4d6       ??$?2PAUHINSTANCE__@@@Wrapper@?$CSimpleArray@PAUHINSTANCE__@@V?$CSimpleArrayEqualHelper@PAUHINSTANCE__@@@ATL@@@ATL@@SAPAXIPAPAUHINSTANCE__@@@Z 0042f4d6 f i atls:atlbase.obj
 0002:0001e4e0       ??0?$CComCritSecLock@VCComCriticalSection@ATL@@@ATL@@QAE@AAVCComCriticalSection@1@_N@Z 0042f4e0 f i atls:atlbase.obj
 0002:0001e510       ??0?$CSimpleArray@PAUHINSTANCE__@@V?$CSimpleArrayEqualHelper@PAUHINSTANCE__@@@ATL@@@ATL@@QAE@XZ 0042f510 f i atls:atlbase.obj
 0002:0001e520       ??0CAtlBaseModule@ATL@@QAE@XZ 0042f520 f   atls:atlbase.obj
 0002:0001e587       ??0Wrapper@?$CSimpleArray@PAUHINSTANCE__@@V?$CSimpleArrayEqualHelper@PAUHINSTANCE__@@@ATL@@@ATL@@QAE@ABQAUHINSTANCE__@@@Z 0042f587 f i atls:atlbase.obj
 0002:0001e59b       ??0_ATL_BASE_MODULE70@ATL@@QAE@XZ 0042f59b f i atls:atlbase.obj
 0002:0001e5c6       ??1?$CComCritSecLock@VCComCriticalSection@ATL@@@ATL@@QAE@XZ 0042f5c6 f i atls:atlbase.obj
 0002:0001e5e2       ??1?$CSimpleArray@PAUHINSTANCE__@@V?$CSimpleArrayEqualHelper@PAUHINSTANCE__@@@ATL@@@ATL@@QAE@XZ 0042f5e2 f i atls:atlbase.obj
 0002:0001e5e7       ??1CAtlBaseModule@ATL@@QAE@XZ 0042f5e7 f   atls:atlbase.obj
 0002:0001e602       ??1_ATL_BASE_MODULE70@ATL@@QAE@XZ 0042f602 f i atls:atlbase.obj
 0002:0001e60c       ??A?$CSimpleArray@PAUHINSTANCE__@@V?$CSimpleArrayEqualHelper@PAUHINSTANCE__@@@ATL@@@ATL@@QAEAAPAUHINSTANCE__@@H@Z 0042f60c f i atls:atlbase.obj
 0002:0001e640       ?Add@?$CSimpleArray@PAUHINSTANCE__@@V?$CSimpleArrayEqualHelper@PAUHINSTANCE__@@@ATL@@@ATL@@QAEHABQAUHINSTANCE__@@@Z 0042f640 f i atls:atlbase.obj
 0002:0001e6d6       ?AddResourceInstance@CAtlBaseModule@ATL@@QAE_NPAUHINSTANCE__@@@Z 0042f6d6 f   atls:atlbase.obj
 0002:0001e715       ?AtlCrtErrorCheck@ATL@@YAHH@Z 0042f715 f i atls:atlbase.obj
 0002:0001e75e       ?AtlThrowImpl@ATL@@YGXJ@Z  0042f75e f i atls:atlbase.obj
 0002:0001e78d       ?GetHInstanceAt@CAtlBaseModule@ATL@@QAEPAUHINSTANCE__@@H@Z 0042f78d f   atls:atlbase.obj
 0002:0001e7e3       ?GetSize@?$CSimpleArray@PAUHINSTANCE__@@V?$CSimpleArrayEqualHelper@PAUHINSTANCE__@@@ATL@@@ATL@@QBEHXZ 0042f7e3 f i atls:atlbase.obj
 0002:0001e7e7       ?InternalSetAtIndex@?$CSimpleArray@PAUHINSTANCE__@@V?$CSimpleArrayEqualHelper@PAUHINSTANCE__@@@ATL@@@ATL@@QAEXHABQAUHINSTANCE__@@@Z 0042f7e7 f i atls:atlbase.obj
 0002:0001e807       ?Lock@?$CComCritSecLock@VCComCriticalSection@ATL@@@ATL@@QAEJXZ 0042f807 f i atls:atlbase.obj
 0002:0001e81e       ?Lock@CComCriticalSection@ATL@@QAEJXZ 0042f81e f i atls:atlbase.obj
 0002:0001e82a       ?RemoveAll@?$CSimpleArray@PAUHINSTANCE__@@V?$CSimpleArrayEqualHelper@PAUHINSTANCE__@@@ATL@@@ATL@@QAEXXZ 0042f82a f i atls:atlbase.obj
 0002:0001e84e       ?RemoveAt@?$CSimpleArray@PAUHINSTANCE__@@V?$CSimpleArrayEqualHelper@PAUHINSTANCE__@@@ATL@@@ATL@@QAEHH@Z 0042f84e f i atls:atlbase.obj
 0002:0001e8a8       ?RemoveResourceInstance@CAtlBaseModule@ATL@@QAE_NPAUHINSTANCE__@@@Z 0042f8a8 f   atls:atlbase.obj
 0002:0001e91e       ?Unlock@?$CComCritSecLock@VCComCriticalSection@ATL@@@ATL@@QAEXXZ 0042f91e f i atls:atlbase.obj
 0002:0001e933       ?Unlock@CComCriticalSection@ATL@@QAEJXZ 0042f933 f i atls:atlbase.obj
 0002:0001e93f       ?memmove_s@Checked@ATL@@YAXPAXIPBXI@Z 0042f93f f i atls:atlbase.obj
 0002:0001ea03       ??0?$CTraceCategoryEx@$00$0A@@ATL@@QAE@PB_W@Z 0042fa03 f i atls:stdafx.obj
 0002:0001ea08       ??0?$CTraceCategoryEx@$01$0A@@ATL@@QAE@PB_W@Z 0042fa08 f i atls:stdafx.obj
 0002:0001ea0d       ??0?$CTraceCategoryEx@$03$0A@@ATL@@QAE@PB_W@Z 0042fa0d f i atls:stdafx.obj
 0002:0001ea12       ??0?$CTraceCategoryEx@$07$0A@@ATL@@QAE@PB_W@Z 0042fa12 f i atls:stdafx.obj
 0002:0001ea17       ??0?$CTraceCategoryEx@$0BA@$0A@@ATL@@QAE@PB_W@Z 0042fa17 f i atls:stdafx.obj
 0002:0001ea1c       ??0?$CTraceCategoryEx@$0BAA@$0A@@ATL@@QAE@PB_W@Z 0042fa1c f i atls:stdafx.obj
 0002:0001ea21       ??0?$CTraceCategoryEx@$0BAAA@$0A@@ATL@@QAE@PB_W@Z 0042fa21 f i atls:stdafx.obj
 0002:0001ea26       ??0?$CTraceCategoryEx@$0BAAAA@$0A@@ATL@@QAE@PB_W@Z 0042fa26 f i atls:stdafx.obj
 0002:0001ea2b       ??0?$CTraceCategoryEx@$0BAAAAA@$0A@@ATL@@QAE@PB_W@Z 0042fa2b f i atls:stdafx.obj
 0002:0001ea30       ??0?$CTraceCategoryEx@$0CA@$0A@@ATL@@QAE@PB_W@Z 0042fa30 f i atls:stdafx.obj
 0002:0001ea35       ??0?$CTraceCategoryEx@$0CAA@$0A@@ATL@@QAE@PB_W@Z 0042fa35 f i atls:stdafx.obj
 0002:0001ea3a       ??0?$CTraceCategoryEx@$0CAAA@$0A@@ATL@@QAE@PB_W@Z 0042fa3a f i atls:stdafx.obj
 0002:0001ea3f       ??0?$CTraceCategoryEx@$0CAAAA@$0A@@ATL@@QAE@PB_W@Z 0042fa3f f i atls:stdafx.obj
 0002:0001ea44       ??0?$CTraceCategoryEx@$0CAAAAA@$0A@@ATL@@QAE@PB_W@Z 0042fa44 f i atls:stdafx.obj
 0002:0001ea49       ??0?$CTraceCategoryEx@$0EA@$0A@@ATL@@QAE@PB_W@Z 0042fa49 f i atls:stdafx.obj
 0002:0001ea4e       ??0?$CTraceCategoryEx@$0EAA@$0A@@ATL@@QAE@PB_W@Z 0042fa4e f i atls:stdafx.obj
 0002:0001ea53       ??0?$CTraceCategoryEx@$0EAAA@$0A@@ATL@@QAE@PB_W@Z 0042fa53 f i atls:stdafx.obj
 0002:0001ea58       ??0?$CTraceCategoryEx@$0EAAAA@$0A@@ATL@@QAE@PB_W@Z 0042fa58 f i atls:stdafx.obj
 0002:0001ea5d       ??0?$CTraceCategoryEx@$0EAAAAA@$0A@@ATL@@QAE@PB_W@Z 0042fa5d f i atls:stdafx.obj
 0002:0001ea62       ??0?$CTraceCategoryEx@$0IA@$0A@@ATL@@QAE@PB_W@Z 0042fa62 f i atls:stdafx.obj
 0002:0001ea67       ??0?$CTraceCategoryEx@$0IAA@$0A@@ATL@@QAE@PB_W@Z 0042fa67 f i atls:stdafx.obj
 0002:0001ea6c       ??0?$CTraceCategoryEx@$0IAAA@$0A@@ATL@@QAE@PB_W@Z 0042fa6c f i atls:stdafx.obj
 0002:0001ea71       ??0?$CTraceCategoryEx@$0IAAAA@$0A@@ATL@@QAE@PB_W@Z 0042fa71 f i atls:stdafx.obj
 0002:0001ea76       ??_I@YGXPAXIIP6EX0@Z@Z     0042fa76 f i atls:stdafx.obj
 0002:0001eaaa       _SysFreeString@4           0042faaa f   oleaut32:OLEAUT32.dll
 0002:0001eab0       _GdiplusShutdown@4         0042fab0 f   gdiplus:gdiplus.dll
 0002:0001eab6       _inet_ntoa@4               0042fab6 f   ws2_32:WS2_32.dll
 0002:0001eabc       _ntohs@4                   0042fabc f   ws2_32:WS2_32.dll
 0002:0001eac2       _WSAStartup@8              0042fac2 f   ws2_32:WS2_32.dll
 0002:0001eac8       _pcap_open_live            0042fac8 f   wpcap:wpcap.dll
 0002:0001eace       _pcap_close                0042face f   wpcap:wpcap.dll
 0002:0001ead4       _pcap_next_ex              0042fad4 f   wpcap:wpcap.dll
 0002:0001eada       _pcap_setfilter            0042fada f   wpcap:wpcap.dll
 0002:0001eae0       _pcap_compile              0042fae0 f   wpcap:wpcap.dll
 0002:0001eae6       _pcap_findalldevs          0042fae6 f   wpcap:wpcap.dll
 0002:0001eaec       _pcap_freealldevs          0042faec f   wpcap:wpcap.dll
 0002:0001eaf2       _memset                    0042faf2 f   vcruntimed:VCRUNTIME140D.dll
 0002:0001eaf8       ___CxxFrameHandler3        0042faf8 f   vcruntimed:VCRUNTIME140D.dll
 0002:0001eafe       ___vcrt_InitializeCriticalSectionEx 0042fafe f   vcruntimed:VCRUNTIME140D.dll
 0002:0001eb04       ___telemetry_main_invoke_trigger 0042fb04 f   vcruntimed:VCRUNTIME140D.dll
 0002:0001eb0a       ___telemetry_main_return_trigger 0042fb0a f   vcruntimed:VCRUNTIME140D.dll
 0002:0001eb10       __except_handler4_common   0042fb10 f   vcruntimed:VCRUNTIME140D.dll
 0002:0001eb16       ___vcrt_GetModuleFileNameW 0042fb16 f   vcruntimed:VCRUNTIME140D.dll
 0002:0001eb1c       ___vcrt_GetModuleHandleW   0042fb1c f   vcruntimed:VCRUNTIME140D.dll
 0002:0001eb22       ___vcrt_LoadLibraryExW     0042fb22 f   vcruntimed:VCRUNTIME140D.dll
 0002:0001eb28       ___std_type_info_destroy_list 0042fb28 f   vcruntimed:VCRUNTIME140D.dll
 0002:0001eb2e       _memmove                   0042fb2e f   vcruntimed:VCRUNTIME140D.dll
 0002:0001eb34       _free                      0042fb34 f   ucrtd:ucrtbased.dll
 0002:0001eb3a       _wcscpy_s                  0042fb3a f   ucrtd:ucrtbased.dll
 0002:0001eb40       ___stdio_common_vswprintf_s 0042fb40 f   ucrtd:ucrtbased.dll
 0002:0001eb46       _atoi                      0042fb46 f   ucrtd:ucrtbased.dll
 0002:0001eb4c       __CrtDbgReportW            0042fb4c f   ucrtd:ucrtbased.dll
 0002:0001eb52       ___stdio_common_vsprintf   0042fb52 f   ucrtd:ucrtbased.dll
 0002:0001eb58       _srand                     0042fb58 f   ucrtd:ucrtbased.dll
 0002:0001eb5e       _rand                      0042fb5e f   ucrtd:ucrtbased.dll
 0002:0001eb64       __time64                   0042fb64 f   ucrtd:ucrtbased.dll
 0002:0001eb6a       _wcslen                    0042fb6a f   ucrtd:ucrtbased.dll
 0002:0001eb70       ___stdio_common_vsnprintf_s 0042fb70 f   ucrtd:ucrtbased.dll
 0002:0001eb76       _malloc                    0042fb76 f   ucrtd:ucrtbased.dll
 0002:0001eb7c       _strcat                    0042fb7c f   ucrtd:ucrtbased.dll
 0002:0001eb82       __CrtDbgReport             0042fb82 f   ucrtd:ucrtbased.dll
 0002:0001eb88       ___stdio_common_vsprintf_s 0042fb88 f   ucrtd:ucrtbased.dll
 0002:0001eb8e       __seh_filter_dll           0042fb8e f   ucrtd:ucrtbased.dll
 0002:0001eb94       __initialize_narrow_environment 0042fb94 f   ucrtd:ucrtbased.dll
 0002:0001eb9a       __initialize_onexit_table  0042fb9a f   ucrtd:ucrtbased.dll
 0002:0001eba0       __register_onexit_function 0042fba0 f   ucrtd:ucrtbased.dll
 0002:0001eba6       __execute_onexit_table     0042fba6 f   ucrtd:ucrtbased.dll
 0002:0001ebac       __crt_atexit               0042fbac f   ucrtd:ucrtbased.dll
 0002:0001ebb2       __crt_at_quick_exit        0042fbb2 f   ucrtd:ucrtbased.dll
 0002:0001ebb8       __cexit                    0042fbb8 f   ucrtd:ucrtbased.dll
 0002:0001ebbe       __seh_filter_exe           0042fbbe f   ucrtd:ucrtbased.dll
 0002:0001ebc4       __set_app_type             0042fbc4 f   ucrtd:ucrtbased.dll
 0002:0001ebca       ___setusermatherr          0042fbca f   ucrtd:ucrtbased.dll
 0002:0001ebd0       __configure_narrow_argv    0042fbd0 f   ucrtd:ucrtbased.dll
 0002:0001ebd6       __get_narrow_winmain_command_line 0042fbd6 f   ucrtd:ucrtbased.dll
 0002:0001ebdc       __initterm                 0042fbdc f   ucrtd:ucrtbased.dll
 0002:0001ebe2       __initterm_e               0042fbe2 f   ucrtd:ucrtbased.dll
 0002:0001ebe8       _exit                      0042fbe8 f   ucrtd:ucrtbased.dll
 0002:0001ebee       __exit                     0042fbee f   ucrtd:ucrtbased.dll
 0002:0001ebf4       __set_fmode                0042fbf4 f   ucrtd:ucrtbased.dll
 0002:0001ebfa       __c_exit                   0042fbfa f   ucrtd:ucrtbased.dll
 0002:0001ec00       __register_thread_local_exe_atexit_callback 0042fc00 f   ucrtd:ucrtbased.dll
 0002:0001ec06       __configthreadlocale       0042fc06 f   ucrtd:ucrtbased.dll
 0002:0001ec0c       __set_new_mode             0042fc0c f   ucrtd:ucrtbased.dll
 0002:0001ec12       ___p__commode              0042fc12 f   ucrtd:ucrtbased.dll
 0002:0001ec18       _terminate                 0042fc18 f   ucrtd:ucrtbased.dll
 0002:0001ec1e       __wmakepath_s              0042fc1e f   ucrtd:ucrtbased.dll
 0002:0001ec24       __wsplitpath_s             0042fc24 f   ucrtd:ucrtbased.dll
 0002:0001ec2a       __controlfp_s              0042fc2a f   ucrtd:ucrtbased.dll
 0002:0001ec30       __invalid_parameter_noinfo 0042fc30 f   ucrtd:ucrtbased.dll
 0002:0001ec36       __errno                    0042fc36 f   ucrtd:ucrtbased.dll
 0002:0001ec3c       __recalloc                 0042fc3c f   ucrtd:ucrtbased.dll
 0002:0001ec42       ?_AfxSocketInit@@YGHPAUWSAData@@@Z 0042fc42 f   mfc140d:mfc140d.dll
 0002:0001ec50       ?AfxInitialize@@YGHHK@Z    0042fc50 f   mfcs140d:appmodul.obj
 0002:0001ece0       _WinMain@16                0042fce0 f   mfcs140d:appmodul.obj
 0002:0001ed0c       _OutputDebugStringW@4      0042fd0c f   kernel32:KERNEL32.dll
 0002:0001ed12       __setmbcp                  0042fd12 f   ucrtd:ucrtbased.dll
 0002:0001ed18       ?AfxGetModuleState@@YGPAVAFX_MODULE_STATE@@XZ 0042fd18 f   mfc140d:mfc140d.dll
 0002:0001ed1e       ?AfxWinMain@@YGHPAUHINSTANCE__@@0PADH@Z 0042fd1e f   mfc140d:mfc140d.dll
 0002:0001ed30       ___scrt_stub_for_acrt_initialize 0042fd30 f   msvcrtd:ucrt_stubs.obj
 0002:0001ed30       ___acrt_initialize         0042fd30 f   msvcrtd:ucrt_stubs.obj
 0002:0001ed30       ___vcrt_initialize         0042fd30 f   msvcrtd:ucrt_stubs.obj
 0002:0001ed40       ___scrt_stub_for_acrt_thread_attach 0042fd40 f   msvcrtd:ucrt_stubs.obj
 0002:0001ed40       ___acrt_thread_attach      0042fd40 f   msvcrtd:ucrt_stubs.obj
 0002:0001ed40       ___vcrt_thread_attach      0042fd40 f   msvcrtd:ucrt_stubs.obj
 0002:0001ed50       ___acrt_thread_detach      0042fd50 f   msvcrtd:ucrt_stubs.obj
 0002:0001ed50       ___vcrt_thread_detach      0042fd50 f   msvcrtd:ucrt_stubs.obj
 0002:0001ed50       ___scrt_stub_for_acrt_thread_detach 0042fd50 f   msvcrtd:ucrt_stubs.obj
 0002:0001ed60       ___acrt_uninitialize       0042fd60 f   msvcrtd:ucrt_stubs.obj
 0002:0001ed60       ___scrt_stub_for_acrt_uninitialize 0042fd60 f   msvcrtd:ucrt_stubs.obj
 0002:0001ed60       ___vcrt_uninitialize       0042fd60 f   msvcrtd:ucrt_stubs.obj
 0002:0001ed70       ___acrt_uninitialize_critical 0042fd70 f   msvcrtd:ucrt_stubs.obj
 0002:0001ed70       ___scrt_stub_for_acrt_uninitialize_critical 0042fd70 f   msvcrtd:ucrt_stubs.obj
 0002:0001ed70       ___vcrt_uninitialize_critical 0042fd70 f   msvcrtd:ucrt_stubs.obj
 0002:0001ed80       ___scrt_stub_for_is_c_termination_complete 0042fd80 f   msvcrtd:ucrt_stubs.obj
 0002:0001ed80       __is_c_termination_complete 0042fd80 f   msvcrtd:ucrt_stubs.obj
 0002:000220b0       ??__Fcache@?1??GetCDCCacheInstance@CImage@ATL@@CAPAVCDCCache@12@XZ@YAXXZ 004330b0 f i stdafx.obj
 0002:00022100       ??__FgdiPlus@?1??GetInitGDIPlusInstance@CImage@ATL@@CAPAVCInitGDIPlus@12@XZ@YAXXZ 00433100 f i stdafx.obj
 0002:00022150       ??__FstrHeap@?1??GetInstance@CAtlStringMgr@ATL@@SAPAUIAtlStringMgr@2@XZ@YAXXZ 00433150 f i stdafx.obj
 0002:000221a0       ??__FstrMgr@?1??GetInstance@CAtlStringMgr@ATL@@SAPAUIAtlStringMgr@2@XZ@YAXXZ 004331a0 f i stdafx.obj
 0003:00000000       ___xc_a                    00435000     msvcrtd:initializers.obj
 0003:0000049c       ___xc_z                    0043549c     msvcrtd:initializers.obj
 0003:000005a0       ___xi_a                    004355a0     msvcrtd:initializers.obj
 0003:000009b0       ___xi_z                    004359b0     msvcrtd:initializers.obj
 0003:00000ab4       ___xl_a                    00435ab4     msvcrtd:tlssup.obj
 0003:00000ab8       ___xl_z                    00435ab8     msvcrtd:tlssup.obj
 0003:00000abc       ___xp_a                    00435abc     msvcrtd:initializers.obj
 0003:00000bc0       ___xp_z                    00435bc0     msvcrtd:initializers.obj
 0003:00000cc4       ___xt_a                    00435cc4     msvcrtd:initializers.obj
 0003:00000dc8       ___xt_z                    00435dc8     msvcrtd:initializers.obj
 0003:00000ed4       ??_7ClientSock@@6B@        00435ed4     ClientSock.obj
 0003:00000f90       ??_C@_17CNPHIMPH@?$AA?$CF?$AAl?$AAs?$AA?$AA@ 00435f90     DB_Check.obj
 0003:00000f9c       ??_C@_0BC@PGMFNIFA@atlTraceException?$AA@ 00435f9c     DB_Check.obj
 0003:00000fb4       ??_C@_0P@MBNHGHMI@atlTraceString?$AA@ 00435fb4     DB_Check.obj
 0003:00000fc8       ??_C@_17LGGGMOOB@?$AA?$CF?$AAh?$AAs?$AA?$AA@ 00435fc8     DB_Check.obj
 0003:00000fd8       ??_C@_1EO@EBPPKGOM@?$AAf?$AAa?$AAl?$AAs?$AAe?$AA?5?$AA?$CG?$AA?$CG?$AA?5?$AA?$CC?$AAT?$AAo?$AAo?$AA?5?$AAm?$AAa?$AAn?$AAy?$AA?5?$AAc?$AAa?$AAt?$AAe?$AAg?$AAo?$AAr?$AAi?$AAe?$AAs?$AA?5?$AAd?$AAe@ 00435fd8     DB_Check.obj
 0003:00001038       ??_C@_1KC@LMLKMJJ@?$AAc?$AA?3?$AA?2?$AAp?$AAr?$AAo?$AAg?$AAr?$AAa?$AAm?$AA?5?$AAf?$AAi?$AAl?$AAe?$AAs?$AA?5?$AA?$CI?$AAx?$AA8?$AA6?$AA?$CJ?$AA?2?$AAm?$AAi?$AAc?$AAr?$AAo?$AAs?$AAo?$AAf?$AAt@ 00436038     DB_Check.obj
 0003:000010fa       ??_C@_00CNPNBAHC@?$AA@     004360fa     DB_Check.obj
 0003:000010fc       ?classCDB_Check@CDB_Check@@2UCRuntimeClass@@B 004360fc     DB_Check.obj
 0003:00001124       ??_7CDB_Check@@6B@         00436124     DB_Check.obj
 0003:0000130c       ??_C@_09LEENKBIF@CDB_Check?$AA@ 0043630c     DB_Check.obj
 0003:00001318       ??_C@_04DGPNBEEL@issi?$AA@ 00436318     DB_Check.obj
 0003:00001320       ??_C@_08FBODKBNH@apmsetup?$AA@ 00436320     DB_Check.obj
 0003:0000132c       ??_C@_04NBFCGMPH@root?$AA@ 0043632c     DB_Check.obj
 0003:00001334       ??_C@_09IPAEKDAI@localhost?$AA@ 00436334     DB_Check.obj
 0003:00001340       ??_C@_0BE@NMDIMGIK@DB?5CONNECTION?5ERROR?$AA@ 00436340     DB_Check.obj
 0003:00001358       ??_C@_0N@BHEAEDAP@192?4168?40?476?$AA@ 00436358     DB_Check.obj
 0003:00001368       ??_C@_0CD@EFHDBDLB@KEY?5MANAGEMENT?5DB?5CONNECTION?5ERR@ 00436368     DB_Check.obj
 0003:00001394       ??_C@_04DFNBDBBL@DATA?$AA@ 00436394     DB_Check.obj
 0003:0000139c       ??_C@_04FBLNPEBP@DATE?$AA@ 0043639c     DB_Check.obj
 0003:000013a8       ??_C@_0GL@DPNNPFAF@select?5date_format?$CIdate?0?5?8?$CFY?9?$CFm?9@ 004363a8     DB_Check.obj
 0003:00001428       ??_C@_0BF@OGIIPHBG@Query?5Select2?5Error?$CB?$AA@ 00436428     DB_Check.obj
 0003:00001444       ??_C@_02OEPNBAID@?$CF?8?$AA@ 00436444     DB_Check.obj
 0003:00001448       ??_C@_0CF@NCFGFICN@SELECT?5?$CK?5FROM?5data?5WHERE?5date?5LI@ 00436448     DB_Check.obj
 0003:00001474       ??_C@_0BF@PBPDODFF@Query?5Select3?5Error?$CB?$AA@ 00436474     DB_Check.obj
 0003:00001490       ??_C@_0CL@GHIFJAPK@SELECT?5?$CK?5FROM?5encryptkey?5WHERE?5d@ 00436490     DB_Check.obj
 0003:000014c4       ??_C@_05NAOIJFC@Error?$AA@ 004364c4     DB_Check.obj
 0003:000014cc       ??_C@_09INMPGNN@Time?5OUT?$CB?$AA@ 004364cc     DB_Check.obj
 0003:00001554       ??_C@_02DPKJAMEF@?$CFd?$AA@ 00436554     IDS.obj
 0003:00001558       ?classCIDS@CIDS@@2UCRuntimeClass@@B 00436558     IDS.obj
 0003:00001580       ??_7CIDS@@6B@              00436580     IDS.obj
 0003:00001768       ??_C@_04CGJHBGEH@CIDS?$AA@ 00436768     IDS.obj
 0003:00001770       ??_C@_03IKNANCPO@NUM?$AA@  00436770     IDS.obj
 0003:00001774       ??_C@_06CDNPEPDB@DEVICE?$AA@ 00436774     IDS.obj
 0003:0000177c       ??_C@_0BB@COCADGON@dev?5find?5failed?6?$AA@ 0043677c     IDS.obj
 0003:00001790       ??_C@_0P@GBLAHEJJ@no?5devs?5found?6?$AA@ 00436790     IDS.obj
 0003:000017a4       ??_C@_0CG@INDEAEPK@?$DN?$DN?$DN?$DN?$DN?$DN?$DN?$DN?$DN?$LF?p?$LJ?Y?$MA?L?$LN?$LK?5?$MA?e?D?$KB?5?$LI?q?$LH?O?$DN?$DN?$DN?$DN?$DN@ 004367a4     IDS.obj
 0003:000017d4       ??_C@_09MBOIHLPF@?$CFd?4?5?$CI?$CFs?$CJ?6?$AA@ 004367d4     IDS.obj
 0003:000017e0       ??_C@_0BM@HIJPCDLC@?$CINo?5description?5available?$CJ?6?$AA@ 004367e0     IDS.obj
 0003:00001804       ??_C@_0CA@KMAPEPBH@DEVICE_LIST?5?$LP?$KB?$LM?$KN?5?$LJ?x?H?$KD?5?$LE?u?$LK?m?E?$KM?$LI?$KP?6?$AA@ 00436804     IDS.obj
 0003:0000182c       ??_C@_0BC@KMNMEHDA@ether?5type?5wrong?6?$AA@ 0043682c     IDS.obj
 0003:00001844       ??_C@_0CP@MJFLIKML@Dst?5MAC?5Addr?5?$FL?$CF02x?3?$CF02x?3?$CF02x?3?$CF02@ 00436844     IDS.obj
 0003:0000187c       ??_C@_0CP@LHGFPIBP@Src?5MAC?5Addr?5?$FL?$CF02x?3?$CF02x?3?$CF02x?3?$CF02@ 0043687c     IDS.obj
 0003:000018b4       ??_C@_0CK@PLPOHFGM@?$DN?$DN?$DN?$DN?$DN?$DN?$DN?$DN?$DN?$DN?$DN?$DNETHERNET?5HEADER?$DN?$DN?$DN?$DN?$DN@ 004368b4     IDS.obj
 0003:000018e8       ??_C@_09IDFAPBDA@Log?5Clear?$AA@ 004368e8     IDS.obj
 0003:000018f4       ??_C@_0CE@OOOFCIFH@?$DN?$DN?$DN?$DN?$DN?$DN?$DN?$DN?$DN?$DN?$DN?$DNIP?5HEADER?$DN?$DN?$DN?$DN?$DN?$DN?$DN?$DN?$DN?$DN?$DN@ 004368f4     IDS.obj
 0003:00001920       ??_C@_0N@LHGEIGFI@IPv?$CFd?5ver?5?$AN?6?$AA@ 00436920     IDS.obj
 0003:00001930       ??_C@_0BF@PIBMGAPM@Packet?5Length?5?3?5?$CFd?$AN?6?$AA@ 00436930     IDS.obj
 0003:0000194c       ??_C@_0L@GJNNBABB@TTL?5?3?5?$CFd?$AN?6?$AA@ 0043694c     IDS.obj
 0003:0000195c       ??_C@_0BB@FHDLABIL@Protocol?5?3?5TCP?$AN?6?$AA@ 0043695c     IDS.obj
 0003:00001970       ??_C@_0BD@DGCMBLIC@Src?5IP?5Addr?5?3?5?$CFs?$AN?6?$AA@ 00436970     IDS.obj
 0003:00001988       ??_C@_0BD@LHMBPIBE@Dst?5IP?5Addr?5?3?5?$CFs?$AN?6?$AA@ 00436988     IDS.obj
 0003:000019a0       ??_C@_0BE@JGFCGKNP@Src?5Port?5Num?5?3?5?$CFd?$AN?6?$AA@ 004369a0     IDS.obj
 0003:000019b8       ??_C@_0BF@FIONMNEM@Dest?5Port?5Num?5?3?5?$CFd?$AN?6?$AA@ 004369b8     IDS.obj
 0003:000019d4       ??_C@_0CF@LNHGMKNC@?$DN?$DN?$DN?$DN?$DN?$DN?$DN?$DN?$DN?$DN?$DN?$DNTCP?5HEADER?$DN?$DN?$DN?$DN?$DN?$DN?$DN?$DN?$DN?$DN@ 004369d4     IDS.obj
 0003:00001a00       ??_C@_06CFDJKGDN@Flag?5?3?$AA@ 00436a00     IDS.obj
 0003:00001a08       ??_C@_05PKKEJAJE@?5CWR?5?$AA@ 00436a08     IDS.obj
 0003:00001a10       ??_C@_05EFBBLEGG@?5ENC?5?$AA@ 00436a10     IDS.obj
 0003:00001a18       ??_C@_05DIDHGDBP@?5URG?5?$AA@ 00436a18     IDS.obj
 0003:00001a20       ??_C@_05EMOIJLMD@?5ACK?5?$AA@ 00436a20     IDS.obj
 0003:00001a28       ??_C@_06GDOGAJMH@?5PUSH?5?$AA@ 00436a28     IDS.obj
 0003:00001a30       ??_C@_05CMMLMFED@?5RST?5?$AA@ 00436a30     IDS.obj
 0003:00001a38       ??_C@_05GPKHCKDB@?5SYN?5?$AA@ 00436a38     IDS.obj
 0003:00001a40       ??_C@_05JHLOGFFM@?5FIN?5?$AA@ 00436a40     IDS.obj
 0003:00001a48       ??_C@_02PCIJFNDE@?$AN?6?$AA@ 00436a48     IDS.obj
 0003:00001a4c       ??_C@_0BC@LNMCLCGD@pcap?5open?5failed?6?$AA@ 00436a4c     IDS.obj
 0003:00001a64       ??_C@_0BG@JOLPIMBH@pcap?5open?5successful?6?$AA@ 00436a64     IDS.obj
 0003:00001a80       ??_C@_0CA@GCOOKDIM@host?5192?4168?40?473?5and?5port?57777?$AA@ 00436a80     IDS.obj
 0003:00001aa8       ??_C@_0BF@GBGNMEEI@pcap?5compile?5failed?6?$AA@ 00436aa8     IDS.obj
 0003:00001ac4       ??_C@_0CB@PEEOCAHH@?$AN?6?$DN?$DN?$DN?$DN?$DN?$DN?$DN?$DN?$DN?$DN?$DN?$DNDATA?$DN?$DN?$DN?$DN?$DN?$DN?$DN?$DN?$DN?$DN?$DN?$DN?$AN?6@ 00436ac4     IDS.obj
 0003:00001aec       ??_C@_04LLEBNMDN@?$CFs?$AN?6?$AA@ 00436aec     IDS.obj
 0003:00001af4       ??_C@_0BH@KPDHPEBI@pcap?5close?5successful?6?$AA@ 00436af4     IDS.obj
 0003:00001b14       ??_7ServerSock@@6B@        00436b14     ServerSock.obj
 0003:00001b6c       _IID_IAxWinAmbientDispatch 00436b6c     stdafx.obj
 0003:00001b80       ?szInvalidDateTime@ATL@@3QBDB 00436b80     stdafx.obj
 0003:00001b84       ??_C@_0BB@KEKMKJPM@Invalid?5DateTime?$AA@ 00436b84     stdafx.obj
 0003:00001b98       ?szInvalidDateTimeSpan@ATL@@3QBDB 00436b98     stdafx.obj
 0003:00001b9c       ??_C@_0BF@GPPHKJFN@Invalid?5DateTimeSpan?$AA@ 00436b9c     stdafx.obj
 0003:00001bb8       _IID_IAxWinAmbientDispatchEx 00436bb8     stdafx.obj
 0003:00001bcc       _IID_IInternalConnection   00436bcc     stdafx.obj
 0003:00001be0       ?CLSID_WinFormsControl@@3U_GUID@@B 00436be0     stdafx.obj
 0003:00001bf4       _CLSID_Registrar           00436bf4     stdafx.obj
 0003:00001c07       ?chDirSep@ATL@@3DB         00436c07     stdafx.obj
 0003:00001c08       ?chRightBracket@ATL@@3DB   00436c08     stdafx.obj
 0003:00001c09       ?chLeftBracket@ATL@@3DB    00436c09     stdafx.obj
 0003:00001c0a       ?chQuote@ATL@@3DB          00436c0a     stdafx.obj
 0003:00001c0b       ?chEquals@ATL@@3DB         00436c0b     stdafx.obj
 0003:00001c0c       ?szStringVal@ATL@@3QBDB    00436c0c     stdafx.obj
 0003:00001c10       ??_C@_01CPLAODJH@S?$AA@    00436c10     stdafx.obj
 0003:00001c14       ?multiszStringVal@ATL@@3QBDB 00436c14     stdafx.obj
 0003:00001c18       ??_C@_01PLPBNMEI@M?$AA@    00436c18     stdafx.obj
 0003:00001c1c       ?szDwordVal@ATL@@3QBDB     00436c1c     stdafx.obj
 0003:00001c20       ??_C@_01CKDDGHAB@D?$AA@    00436c20     stdafx.obj
 0003:00001c24       ?szBinaryVal@ATL@@3QBDB    00436c24     stdafx.obj
 0003:00001c28       ??_C@_01HMGJMAIH@B?$AA@    00436c28     stdafx.obj
 0003:00001c2c       ?szValToken@ATL@@3QBDB     00436c2c     stdafx.obj
 0003:00001c30       ??_C@_03LAIAPFCB@Val?$AA@  00436c30     stdafx.obj
 0003:00001c34       ?szForceRemove@ATL@@3QBDB  00436c34     stdafx.obj
 0003:00001c38       ??_C@_0M@DBGDLGLL@ForceRemove?$AA@ 00436c38     stdafx.obj
 0003:00001c48       ?szNoRemove@ATL@@3QBDB     00436c48     stdafx.obj
 0003:00001c4c       ??_C@_08KAAPDIAN@NoRemove?$AA@ 00436c4c     stdafx.obj
 0003:00001c58       ?szDelete@ATL@@3QBDB       00436c58     stdafx.obj
 0003:00001c5c       ??_C@_06JBKGCNBB@Delete?$AA@ 00436c5c     stdafx.obj
 0003:00001c64       _IID_IRegistrar            00436c64     stdafx.obj
 0003:00001c78       _IID_IDocHostUIHandlerDispatch 00436c78     stdafx.obj
 0003:00001c8c       _LIBID_ATLLib              00436c8c     stdafx.obj
 0003:00001ca0       _IID_IAxWinHostWindow      00436ca0     stdafx.obj
 0003:00001cb4       _IID_IAxWinHostWindowLic   00436cb4     stdafx.obj
 0003:00001cc8       ??_C@_13COJANIEC@?$AA0?$AA?$AA@ 00436cc8     stdafx.obj
 0003:00001cd0       ??_C@_1KC@HIGAMOBK@?$AAc?$AA?3?$AA?2?$AAp?$AAr?$AAo?$AAg?$AAr?$AAa?$AAm?$AA?5?$AAf?$AAi?$AAl?$AAe?$AAs?$AA?5?$AA?$CI?$AAx?$AA8?$AA6?$AA?$CJ?$AA?2?$AAm?$AAi?$AAc?$AAr?$AAo?$AAs?$AAo?$AAf?$AAt@ 00436cd0     stdafx.obj
 0003:00001d94       ??_C@_0BA@MKMIKKJB@atlTraceGeneral?$AA@ 00436d94     stdafx.obj
 0003:00001da8       ??_C@_0M@DGPFJEBB@atlTraceCOM?$AA@ 00436da8     stdafx.obj
 0003:00001db8       ??_C@_0L@LHELAKBP@atlTraceQI?$AA@ 00436db8     stdafx.obj
 0003:00001dc8       ??_C@_0BC@MALHFBAO@atlTraceRegistrar?$AA@ 00436dc8     stdafx.obj
 0003:00001de0       ??_C@_0BB@ILPPDKFL@atlTraceRefcount?$AA@ 00436de0     stdafx.obj
 0003:00001df4       ??_C@_0BC@DGHHNKDC@atlTraceWindowing?$AA@ 00436df4     stdafx.obj
 0003:00001e0c       ??_C@_0BB@GHKJKKIE@atlTraceControls?$AA@ 00436e0c     stdafx.obj
 0003:00001e20       ??_C@_0BA@DKOAAGGM@atlTraceHosting?$AA@ 00436e20     stdafx.obj
 0003:00001e34       ??_C@_0BB@BEBMGMDO@atlTraceDBClient?$AA@ 00436e34     stdafx.obj
 0003:00001e48       ??_C@_0BD@KOADKDIA@atlTraceDBProvider?$AA@ 00436e48     stdafx.obj
 0003:00001e60       ??_C@_0P@LNEGBOLO@atlTraceSnapin?$AA@ 00436e60     stdafx.obj
 0003:00001e74       ??_C@_0BA@MCBFIDIC@atlTraceNotImpl?$AA@ 00436e74     stdafx.obj
 0003:00001e88       ??_C@_0BD@PJPCCAKP@atlTraceAllocation?$AA@ 00436e88     stdafx.obj
 0003:00001ea0       ??_C@_0N@BNNILHBE@atlTraceTime?$AA@ 00436ea0     stdafx.obj
 0003:00001eb0       ??_C@_0O@MEOJAOKK@atlTraceCache?$AA@ 00436eb0     stdafx.obj
 0003:00001ec0       ??_C@_0BA@IDBKCKK@atlTraceStencil?$AA@ 00436ec0     stdafx.obj
 0003:00001ed4       ??_C@_0M@IOBBMAHG@atlTraceMap?$AA@ 00436ed4     stdafx.obj
 0003:00001ee4       ??_C@_0N@FEAAACHD@atlTraceUtil?$AA@ 00436ee4     stdafx.obj
 0003:00001ef4       ??_C@_0BB@DNJDADMG@atlTraceSecurity?$AA@ 00436ef4     stdafx.obj
 0003:00001f08       ??_C@_0N@KLPNCFEE@atlTraceSync?$AA@ 00436f08     stdafx.obj
 0003:00001f18       ??_C@_0O@KHOBHOBJ@atlTraceISAPI?$AA@ 00436f18     stdafx.obj
 0003:00001f28       ??_C@_1O@LFNDFEBP@?$AA?$CF?$AAl?$AAs?$AA?5?$AA?9?$AA?5?$AA?$AA@ 00436f28     stdafx.obj
 0003:00001f38       ??_C@_1M@PGKOAACE@?$AA?$CF?$AAu?$AA?5?$AA?9?$AA?5?$AA?$AA@ 00436f38     stdafx.obj
 0003:00001f48       ??_C@_1O@OAIPCDPO@?$AA?$CF?$AAl?$AAs?$AA?$CF?$AAl?$AAs?$AA?$AA@ 00436f48     stdafx.obj
 0003:00001f58       ??_C@_1BM@GBBOFEAE@?$AA_?$AA_?$AAa?$AAt?$AAl?$AA_?$AAc?$AAo?$AAn?$AAd?$AAV?$AAa?$AAl?$AA?$AA@ 00436f58     stdafx.obj
 0003:00001f80       ??_7CWin32Heap@ATL@@6B@    00436f80     stdafx.obj
 0003:00001f98       ??_C@_1BG@CLPBKBHG@?$AAh?$AAH?$AAe?$AAa?$AAp?$AA?5?$AA?$CB?$AA?$DN?$AA?5?$AA0?$AA?$AA@ 00436f98     stdafx.obj
 0003:00001fb8       ??_C@_1JO@MDHCMBJF@?$AAc?$AA?3?$AA?2?$AAp?$AAr?$AAo?$AAg?$AAr?$AAa?$AAm?$AA?5?$AAf?$AAi?$AAl?$AAe?$AAs?$AA?5?$AA?$CI?$AAx?$AA8?$AA6?$AA?$CJ?$AA?2?$AAm?$AAi?$AAc?$AAr?$AAo?$AAs?$AAo?$AAf?$AAt@ 00436fb8     stdafx.obj
 0003:00002078       ??_C@_1BC@PMINONJG@?$AAb?$AAS?$AAu?$AAc?$AAc?$AAe?$AAs?$AAs?$AA?$AA@ 00437078     stdafx.obj
 0003:00002090       ??_C@_1BE@BLGCOAPB@?$AAn?$AAR?$AAe?$AAf?$AAs?$AA?5?$AA?$DO?$AA?5?$AA0?$AA?$AA@ 00437090     stdafx.obj
 0003:000020a8       ??_C@_1KG@EDGLFGGJ@?$AAc?$AA?3?$AA?2?$AAp?$AAr?$AAo?$AAg?$AAr?$AAa?$AAm?$AA?5?$AAf?$AAi?$AAl?$AAe?$AAs?$AA?5?$AA?$CI?$AAx?$AA8?$AA6?$AA?$CJ?$AA?2?$AAm?$AAi?$AAc?$AAr?$AAo?$AAs?$AAo?$AAf?$AAt@ 004370a8     stdafx.obj
 0003:00002170       ??_C@_1CA@MEFFJNJ@?$AAp?$AAS?$AAt?$AAr?$AAi?$AAn?$AAg?$AAM?$AAg?$AAr?$AA?5?$AA?$DN?$AA?$DN?$AA?5?$AA0?$AA?$AA@ 00437170     stdafx.obj
 0003:00002198       ??_C@_1KA@NPMEJJPP@?$AAc?$AA?3?$AA?2?$AAp?$AAr?$AAo?$AAg?$AAr?$AAa?$AAm?$AA?5?$AAf?$AAi?$AAl?$AAe?$AAs?$AA?5?$AA?$CI?$AAx?$AA8?$AA6?$AA?$CJ?$AA?2?$AAm?$AAi?$AAc?$AAr?$AAo?$AAs?$AAo?$AAf?$AAt@ 00437198     stdafx.obj
 0003:00002258       ??_C@_0FA@KKCFHKFG@c?3?2program?5files?5?$CIx86?$CJ?2microsoft@ 00437258     stdafx.obj
 0003:000022b8       ??_C@_0EA@EJEMLPD@ERROR?5?3?5Unable?5to?5initialize?5cri@ 004372b8     stdafx.obj
 0003:00002308       ??_C@_0ED@GFNHMOFC@ERROR?5?3?5Unable?5to?5initialize?5cri@ 00437308     stdafx.obj
 0003:0000235c       ??_7CAtlStringMgr@ATL@@6B@ 0043735c     stdafx.obj
 0003:00002380       ??_C@_1JO@ELKMDGCG@?$AAc?$AA?3?$AA?2?$AAp?$AAr?$AAo?$AAg?$AAr?$AAa?$AAm?$AA?5?$AAf?$AAi?$AAl?$AAe?$AAs?$AA?5?$AA?$CI?$AAx?$AA8?$AA6?$AA?$CJ?$AA?2?$AAm?$AAi?$AAc?$AAr?$AAo?$AAs?$AAo?$AAf?$AAt@ 00437380     stdafx.obj
 0003:00002440       ??_C@_1BG@IEBIBJEI@?$AAp?$AAD?$AAa?$AAt?$AAa?$AA?5?$AA?$CB?$AA?$DN?$AA?5?$AA0?$AA?$AA@ 00437440     stdafx.obj
 0003:0000245c       ??_C@_1DE@KEEBDKDC@?$AAp?$AAD?$AAa?$AAt?$AAa?$AA?9?$AA?$DO?$AAp?$AAS?$AAt?$AAr?$AAi?$AAn?$AAg?$AAM?$AAg?$AAr?$AA?5?$AA?$DN?$AA?$DN?$AA?5?$AAt?$AAh?$AAi?$AAs?$AA?$AA@ 0043745c     stdafx.obj
 0003:000024a0       ??_C@_1KI@FIEDFAIM@?$AAc?$AA?3?$AA?2?$AAp?$AAr?$AAo?$AAg?$AAr?$AAa?$AAm?$AA?5?$AAf?$AAi?$AAl?$AAe?$AAs?$AA?5?$AA?$CI?$AAx?$AA8?$AA6?$AA?$CJ?$AA?2?$AAm?$AAi?$AAc?$AAr?$AAo?$AAs?$AAo?$AAf?$AAt@ 004374a0     stdafx.obj
 0003:00002570       ??_C@_1EA@JHMKKLFC@?$AAn?$AAI?$AAn?$AAd?$AAe?$AAx?$AA?5?$AA?$DO?$AA?$DN?$AA?5?$AA0?$AA?5?$AA?$CG?$AA?$CG?$AA?5?$AAn?$AAI?$AAn?$AAd?$AAe?$AAx?$AA?5?$AA?$DM?$AA?5?$AAm?$AA_?$AAn?$AAS?$AAi?$AAz?$AAe?$AA?$AA@ 00437570     stdafx.obj
 0003:000025bc       ??_C@_1BK@NHECDDNK@?$AAm?$AA_?$AAp?$AAD?$AAa?$AAt?$AAa?$AA?5?$AA?$DN?$AA?$DN?$AA?5?$AA0?$AA?$AA@ 004375bc     stdafx.obj
 0003:00002624       ??_7CTestServerApp@@6B@    00437624     TestServer.obj
 0003:00002778       ??_C@_0EH@JFEEMJBO@c?3?2users?2issi?2desktop?2github?2tes@ 00437778     TestServer.obj
 0003:000027d0       ??_C@_0CH@LGHPHLNB@Local?5AppWizard?9Generated?5Applic@ 004377d0     TestServer.obj
 0003:00002800       ??_C@_0EO@FDAODCNF@Warning?3?5dialog?5creation?5failed?0@ 00437800     TestServer.obj
 0003:00002860       ??_C@_0GL@ILOEBLKP@Warning?3?5if?5you?5are?5using?5MFC?5co@ 00437860     TestServer.obj
 0003:000029fc       ??_7CTestServerDlg@@6B@    004379fc     TestServerDlg.obj
 0003:00002be8       ??_7CAboutDlg@@6B@         00437be8     TestServerDlg.obj
 0003:00002dd0       ??_C@_0EK@PIIJMDGP@c?3?2users?2issi?2desktop?2github?2tes@ 00437dd0     TestServerDlg.obj
 0003:00002e28       ??_C@_0BL@MADOBFNO@WINDOW?5DB?5CONNECTION?5ERROR?$AA@ 00437e28     TestServerDlg.obj
 0003:00002e48       ??_C@_07EKBCFBCP@ADDRESS?$AA@ 00437e48     TestServerDlg.obj
 0003:00002e54       ??_C@_0BG@DIKFMGCN@?E?$KM?$LG?s?$MA?L?$LO?p?F?$KO?$LM?R?D?O?5?$LL?$PN?$LM?$LK?$AN?6?$AA@ 00437e54     TestServerDlg.obj
 0003:00002e70       ??_C@_0M@OHKLFKLG@?$LP?$KB?$LM?$KN?5?A?$KC?$LM?S?$AN?6?$AA@ 00437e70     TestServerDlg.obj
 0003:00002e80       ??_C@_05FBDCIGDE@?$CF02X?7?$AA@ 00437e80     TestServerDlg.obj
 0003:00002e88       ??_C@_03NHELKHFK@?$CFd?7?$AA@ 00437e88     TestServerDlg.obj
 0003:00002e8c       ??_C@_01DCLJPIOD@?$CB?$AA@ 00437e8c     TestServerDlg.obj
 0003:00002e90       ??_C@_0DO@GLANGLAB@insert?5into?5encryptkey?5values?$CI?8?$CF@ 00437e90     TestServerDlg.obj
 0003:00002edc       ??_C@_0BD@HGOEFHDP@MYSQL?5QUERY?5ERROR?$CB?$AA@ 00437edc     TestServerDlg.obj
 0003:00002ef4       ??_C@_0DE@JILHHNGK@select?5?$CK?5from?5encryptkey?5order?5b@ 00437ef4     TestServerDlg.obj
 0003:00002f34       ??_C@_0BE@HOLGNEOG@Query?5Select?5Error?$CB?$AA@ 00437f34     TestServerDlg.obj
 0003:00002f4c       ??_C@_01EOFPKCAF@?$EA?$AA@ 00437f4c     TestServerDlg.obj
 0003:00002f50       ??_C@_0CE@BHBIOAAF@insert?5into?5data?5values?$CI?8?$CFs?8?0?5?8?$CF@ 00437f50     TestServerDlg.obj
 0003:00002f7c       ??_C@_0BE@JLBKBFOJ@Query?5Insert?5Error?$CB?$AA@ 00437f7c     TestServerDlg.obj
 0003:00002f94       ??_C@_0BA@JBBPOPLM@?$LM?$KN?$LJ?v?5?$LM?R?D?O?$LL?$PN?$LM?$LK?$AN?6?$AA@ 00437f94     TestServerDlg.obj
 0003:00002fa8       ??_C@_0O@LJILKFAC@?$LI?$KO?$LN?$LK?$LE?W?5?$LN?C?$MA?$NL?$AN?6?$AA@ 00437fa8     TestServerDlg.obj
 0003:00002fb8       ??_C@_0M@PEDELPLH@?$LM?R?D?O?5?G?X?A?$KG?$AN?6?$AA@ 00437fb8     TestServerDlg.obj
 0003:00002fc8       ??_C@_1M@FLIDJFHL@?$AAh?$AAr?$AA?9?$AAB?$AAA?$AA?$AA@ 00437fc8     mfcs140d:nolib.obj
 0003:00002fd8       ??_C@_1O@FMCELNAJ@?$AAs?$AAm?$AAj?$AA?9?$AAN?$AAO?$AA?$AA@ 00437fd8     mfcs140d:nolib.obj
 0003:00002fe8       ??_C@_1M@JHGLJMGJ@?$AAa?$AAr?$AA?9?$AAD?$AAZ?$AA?$AA@ 00437fe8     mfcs140d:nolib.obj
 0003:00002ff8       ??_C@_1M@JKKFDCNP@?$AAz?$AAh?$AA?9?$AAM?$AAO?$AA?$AA@ 00437ff8     mfcs140d:nolib.obj
 0003:00003008       ??_C@_1M@GEEFALPE@?$AAd?$AAe?$AA?9?$AAL?$AAI?$AA?$AA@ 00438008     mfcs140d:nolib.obj
 0003:00003018       ??_C@_1M@IGEOFBG@?$AAe?$AAn?$AA?9?$AAN?$AAZ?$AA?$AA@ 00438018     mfcs140d:nolib.obj
 0003:00003028       ??_C@_1M@KDBONEHP@?$AAe?$AAs?$AA?9?$AAC?$AAR?$AA?$AA@ 00438028     mfcs140d:nolib.obj
 0003:00003038       ??_C@_1M@FHMDOHNN@?$AAf?$AAr?$AA?9?$AAL?$AAU?$AA?$AA@ 00438038     mfcs140d:nolib.obj
 0003:00003048       ??_C@_1BG@NFKKMAFG@?$AAb?$AAs?$AA?9?$AAB?$AAA?$AA?9?$AAL?$AAa?$AAt?$AAn?$AA?$AA@ 00438048     mfcs140d:nolib.obj
 0003:00003064       ??_C@_1O@IMNBEMCI@?$AAs?$AAm?$AAj?$AA?9?$AAS?$AAE?$AA?$AA@ 00438064     mfcs140d:nolib.obj
 0003:00003074       ??_C@_1M@DHHMBNDP@?$AAa?$AAr?$AA?9?$AAM?$AAA?$AA?$AA@ 00438074     mfcs140d:nolib.obj
 0003:00003084       ??_C@_1M@BNBLJCGH@?$AAe?$AAn?$AA?9?$AAI?$AAE?$AA?$AA@ 00438084     mfcs140d:nolib.obj
 0003:00003094       ??_C@_1M@GEPAFMDL@?$AAe?$AAs?$AA?9?$AAP?$AAA?$AA?$AA@ 00438094     mfcs140d:nolib.obj
 0003:000030a4       ??_C@_1M@OJONDMDL@?$AAf?$AAr?$AA?9?$AAM?$AAC?$AA?$AA@ 004380a4     mfcs140d:nolib.obj
 0003:000030b4       ??_C@_1BG@OBCNFJB@?$AAs?$AAr?$AA?9?$AAB?$AAA?$AA?9?$AAL?$AAa?$AAt?$AAn?$AA?$AA@ 004380b4     mfcs140d:nolib.obj
 0003:000030d0       ??_C@_1O@KEMEEGPO@?$AAs?$AAm?$AAa?$AA?9?$AAN?$AAO?$AA?$AA@ 004380d0     mfcs140d:nolib.obj
 0003:000030e0       ??_C@_1M@ELMGFODK@?$AAa?$AAr?$AA?9?$AAT?$AAN?$AA?$AA@ 004380e0     mfcs140d:nolib.obj
 0003:000030f0       ??_C@_1M@BHDLHFAF@?$AAe?$AAn?$AA?9?$AAZ?$AAA?$AA?$AA@ 004380f0     mfcs140d:nolib.obj
 0003:00003100       ??_C@_1M@BMGIGLIF@?$AAe?$AAs?$AA?9?$AAD?$AAO?$AA?$AA@ 00438100     mfcs140d:nolib.obj
 0003:00003110       ??_C@_1BG@CMBHIPBE@?$AAs?$AAr?$AA?9?$AAB?$AAA?$AA?9?$AAC?$AAy?$AAr?$AAl?$AA?$AA@ 00438110     mfcs140d:nolib.obj
 0003:0000312c       ??_C@_1O@HEDBLHNP@?$AAs?$AAm?$AAa?$AA?9?$AAS?$AAE?$AA?$AA@ 0043812c     mfcs140d:nolib.obj
 0003:0000313c       ??_C@_1M@DAGCADIM@?$AAa?$AAr?$AA?9?$AAO?$AAM?$AA?$AA@ 0043813c     mfcs140d:nolib.obj
 0003:0000314c       ??_C@_1M@FODLMICG@?$AAe?$AAn?$AA?9?$AAJ?$AAM?$AA?$AA@ 0043814c     mfcs140d:nolib.obj
 0003:0000315c       ??_C@_1M@DNMLCIHB@?$AAe?$AAs?$AA?9?$AAV?$AAE?$AA?$AA@ 0043815c     mfcs140d:nolib.obj
 0003:0000316c       ??_C@_1O@EOKHMKJK@?$AAs?$AAm?$AAs?$AA?9?$AAF?$AAI?$AA?$AA@ 0043816c     mfcs140d:nolib.obj
 0003:0000317c       ??_C@_1M@CAFJMKOF@?$AAa?$AAr?$AA?9?$AAY?$AAE?$AA?$AA@ 0043817c     mfcs140d:nolib.obj
 0003:0000318c       ??_C@_1M@CBFHIJLI@?$AAe?$AAn?$AA?9?$AAC?$AAB?$AA?$AA@ 0043818c     mfcs140d:nolib.obj
 0003:0000319c       ??_C@_1M@BGNFLDN@?$AAe?$AAs?$AA?9?$AAC?$AAO?$AA?$AA@ 0043819c     mfcs140d:nolib.obj
 0003:000031ac       ??_C@_1O@JMPHMAMC@?$AAs?$AAm?$AAn?$AA?9?$AAF?$AAI?$AA?$AA@ 004381ac     mfcs140d:nolib.obj
 0003:000031bc       ??_C@_1M@JLANABKE@?$AAa?$AAr?$AA?9?$AAS?$AAY?$AA?$AA@ 004381bc     mfcs140d:nolib.obj
 0003:000031cc       ??_C@_1M@HPKGCFGN@?$AAe?$AAn?$AA?9?$AAB?$AAZ?$AA?$AA@ 004381cc     mfcs140d:nolib.obj
 0003:000031dc       ??_C@_1M@OLJCMLGM@?$AAe?$AAs?$AA?9?$AAP?$AAE?$AA?$AA@ 004381dc     mfcs140d:nolib.obj
 0003:000031ec       ??_C@_1M@MKKGFKLE@?$AAa?$AAr?$AA?9?$AAJ?$AAO?$AA?$AA@ 004381ec     mfcs140d:nolib.obj
 0003:000031fc       ??_C@_1M@EKPGLDNI@?$AAe?$AAn?$AA?9?$AAT?$AAT?$AA?$AA@ 004381fc     mfcs140d:nolib.obj
 0003:0000320c       ??_C@_1M@OONGHFHE@?$AAe?$AAs?$AA?9?$AAA?$AAR?$AA?$AA@ 0043820c     mfcs140d:nolib.obj
 0003:0000321c       ??_C@_1M@OOJFGBHE@?$AAa?$AAr?$AA?9?$AAL?$AAB?$AA?$AA@ 0043821c     mfcs140d:nolib.obj
 0003:0000322c       ??_C@_1M@GCEJHNEG@?$AAe?$AAn?$AA?9?$AAZ?$AAW?$AA?$AA@ 0043822c     mfcs140d:nolib.obj
 0003:0000323c       ??_C@_1M@JNOCAHJI@?$AAe?$AAs?$AA?9?$AAE?$AAC?$AA?$AA@ 0043823c     mfcs140d:nolib.obj
 0003:0000324c       ??_C@_1M@JEFHPGGB@?$AAa?$AAr?$AA?9?$AAK?$AAW?$AA?$AA@ 0043824c     mfcs140d:nolib.obj
 0003:0000325c       ??_C@_1M@MLKIBJOJ@?$AAe?$AAn?$AA?9?$AAP?$AAH?$AA?$AA@ 0043825c     mfcs140d:nolib.obj
 0003:0000326c       ??_C@_1M@BDNIPEND@?$AAe?$AAs?$AA?9?$AAC?$AAL?$AA?$AA@ 0043826c     mfcs140d:nolib.obj
 0003:0000327c       ??_C@_1M@MPNMEKBD@?$AAa?$AAr?$AA?9?$AAA?$AAE?$AA?$AA@ 0043827c     mfcs140d:nolib.obj
 0003:0000328c       ??_C@_1M@KBJALCPI@?$AAe?$AAs?$AA?9?$AAU?$AAY?$AA?$AA@ 0043828c     mfcs140d:nolib.obj
 0003:0000329c       ??_C@_1M@LLCCOAGA@?$AAa?$AAr?$AA?9?$AAB?$AAH?$AA?$AA@ 0043829c     mfcs140d:nolib.obj
 0003:000032ac       ??_C@_1M@PBFNCDEL@?$AAe?$AAs?$AA?9?$AAP?$AAY?$AA?$AA@ 004382ac     mfcs140d:nolib.obj
 0003:000032bc       ??_C@_1M@EDGINPNP@?$AAa?$AAr?$AA?9?$AAQ?$AAA?$AA?$AA@ 004382bc     mfcs140d:nolib.obj
 0003:000032cc       ??_C@_1M@MKDBIIJI@?$AAe?$AAs?$AA?9?$AAB?$AAO?$AA?$AA@ 004382cc     mfcs140d:nolib.obj
 0003:000032dc       ??_C@_1M@CPKKEBLD@?$AAe?$AAs?$AA?9?$AAS?$AAV?$AA?$AA@ 004382dc     mfcs140d:nolib.obj
 0003:000032ec       ??_C@_1M@NDBGMMJL@?$AAe?$AAs?$AA?9?$AAH?$AAN?$AA?$AA@ 004382ec     mfcs140d:nolib.obj
 0003:000032fc       ??_C@_1M@JIJIBHDP@?$AAe?$AAs?$AA?9?$AAN?$AAI?$AA?$AA@ 004382fc     mfcs140d:nolib.obj
 0003:0000330c       ??_C@_1M@CGFMKEEK@?$AAe?$AAs?$AA?9?$AAP?$AAR?$AA?$AA@ 0043830c     mfcs140d:nolib.obj
 0003:0000331c       ??_C@_1O@ICJHKIIK@?$AAz?$AAh?$AA?9?$AAC?$AAH?$AAT?$AA?$AA@ 0043831c     mfcs140d:nolib.obj
 0003:0000332c       ??_C@_15CLNEJCE@?$AAs?$AAr?$AA?$AA@ 0043832c     mfcs140d:nolib.obj
 0003:00003338       __pAtlLocaleNameToIndexTable 00438338     mfcs140d:nolib.obj
 0003:00003bc4       ??_C@_1M@KAHEKEIG@?$AAa?$AAf?$AA?9?$AAz?$AAa?$AA?$AA@ 00438bc4     mfcs140d:nolib.obj
 0003:00003bd4       ??_C@_1M@GIECOABL@?$AAa?$AAr?$AA?9?$AAa?$AAe?$AA?$AA@ 00438bd4     mfcs140d:nolib.obj
 0003:00003be4       ??_C@_1M@BMLMEKGI@?$AAa?$AAr?$AA?9?$AAb?$AAh?$AA?$AA@ 00438be4     mfcs140d:nolib.obj
 0003:00003bf4       ??_C@_1M@DAPFDGGB@?$AAa?$AAr?$AA?9?$AAd?$AAz?$AA?$AA@ 00438bf4     mfcs140d:nolib.obj
 0003:00003c04       ??_C@_1M@FJNKGKIG@?$AAa?$AAr?$AA?9?$AAe?$AAg?$AA?$AA@ 00438c04     mfcs140d:nolib.obj
 0003:00003c14       ??_C@_1M@FLGKKCLO@?$AAa?$AAr?$AA?9?$AAi?$AAq?$AA?$AA@ 00438c14     mfcs140d:nolib.obj
 0003:00003c24       ??_C@_1M@GNDIPALM@?$AAa?$AAr?$AA?9?$AAj?$AAo?$AA?$AA@ 00438c24     mfcs140d:nolib.obj
 0003:00003c34       ??_C@_1M@DDMJFMGJ@?$AAa?$AAr?$AA?9?$AAk?$AAw?$AA?$AA@ 00438c34     mfcs140d:nolib.obj
 0003:00003c44       ??_C@_1M@EJALMLHM@?$AAa?$AAr?$AA?9?$AAl?$AAb?$AA?$AA@ 00438c44     mfcs140d:nolib.obj
 0003:00003c54       ??_C@_1M@MOBDBLOC@?$AAa?$AAr?$AA?9?$AAl?$AAy?$AA?$AA@ 00438c54     mfcs140d:nolib.obj
 0003:00003c64       ??_C@_1M@JAOCLHDH@?$AAa?$AAr?$AA?9?$AAm?$AAa?$AA?$AA@ 00438c64     mfcs140d:nolib.obj
 0003:00003c74       ??_C@_1M@JHPMKJIE@?$AAa?$AAr?$AA?9?$AAo?$AAm?$AA?$AA@ 00438c74     mfcs140d:nolib.obj
 0003:00003c84       ??_C@_1M@OEPGHFNH@?$AAa?$AAr?$AA?9?$AAq?$AAa?$AA?$AA@ 00438c84     mfcs140d:nolib.obj
 0003:00003c94       ??_C@_1M@KJDONENM@?$AAa?$AAr?$AA?9?$AAs?$AAa?$AA?$AA@ 00438c94     mfcs140d:nolib.obj
 0003:00003ca4       ??_C@_1M@DMJDKLKM@?$AAa?$AAr?$AA?9?$AAs?$AAy?$AA?$AA@ 00438ca4     mfcs140d:nolib.obj
 0003:00003cb4       ??_C@_1M@OMFIPEDC@?$AAa?$AAr?$AA?9?$AAt?$AAn?$AA?$AA@ 00438cb4     mfcs140d:nolib.obj
 0003:00003cc4       ??_C@_1M@IHMHGAON@?$AAa?$AAr?$AA?9?$AAy?$AAe?$AA?$AA@ 00438cc4     mfcs140d:nolib.obj
 0003:00003cd4       ??_C@_1BG@KDCPGJGB@?$AAa?$AAz?$AA?9?$AAa?$AAz?$AA?9?$AAc?$AAy?$AAr?$AAl?$AA?$AA@ 00438cd4     mfcs140d:nolib.obj
 0003:00003cf0       ??_C@_1BG@IBCKDDOE@?$AAa?$AAz?$AA?9?$AAa?$AAz?$AA?9?$AAl?$AAa?$AAt?$AAn?$AA?$AA@ 00438cf0     mfcs140d:nolib.obj
 0003:00003d0c       ??_C@_1M@EGPFDCPD@?$AAb?$AAe?$AA?9?$AAb?$AAy?$AA?$AA@ 00438d0c     mfcs140d:nolib.obj
 0003:00003d1c       ??_C@_1M@PCMGMCGC@?$AAb?$AAg?$AA?9?$AAb?$AAg?$AA?$AA@ 00438d1c     mfcs140d:nolib.obj
 0003:00003d2c       ??_C@_1M@BJBMFGOB@?$AAb?$AAn?$AA?9?$AAi?$AAn?$AA?$AA@ 00438d2c     mfcs140d:nolib.obj
 0003:00003d3c       ??_C@_1BG@EAKMMACD@?$AAb?$AAs?$AA?9?$AAb?$AAa?$AA?9?$AAl?$AAa?$AAt?$AAn?$AA?$AA@ 00438d3c     mfcs140d:nolib.obj
 0003:00003d58       ??_C@_1M@KGADAODK@?$AAc?$AAa?$AA?9?$AAe?$AAs?$AA?$AA@ 00438d58     mfcs140d:nolib.obj
 0003:00003d68       ??_C@_1M@COAJPDHI@?$AAc?$AAs?$AA?9?$AAc?$AAz?$AA?$AA@ 00438d68     mfcs140d:nolib.obj
 0003:00003d78       ??_C@_1M@DHBHFONH@?$AAc?$AAy?$AA?9?$AAg?$AAb?$AA?$AA@ 00438d78     mfcs140d:nolib.obj
 0003:00003d88       ??_C@_1M@IMGKELGA@?$AAd?$AAa?$AA?9?$AAd?$AAk?$AA?$AA@ 00438d88     mfcs140d:nolib.obj
 0003:00003d98       ??_C@_1M@NNDGDNGA@?$AAd?$AAe?$AA?9?$AAa?$AAt?$AA?$AA@ 00438d98     mfcs140d:nolib.obj
 0003:00003da8       ??_C@_1M@IKDBHEEM@?$AAd?$AAe?$AA?9?$AAc?$AAh?$AA?$AA@ 00438da8     mfcs140d:nolib.obj
 0003:00003db8       ??_C@_1M@GFFOJMCJ@?$AAd?$AAe?$AA?9?$AAd?$AAe?$AA?$AA@ 00438db8     mfcs140d:nolib.obj
 0003:00003dc8       ??_C@_1M@MDNLKBPM@?$AAd?$AAe?$AA?9?$AAl?$AAi?$AA?$AA@ 00438dc8     mfcs140d:nolib.obj
 0003:00003dd8       ??_C@_1M@NJBEEJNL@?$AAd?$AAe?$AA?9?$AAl?$AAu?$AA?$AA@ 00438dd8     mfcs140d:nolib.obj
 0003:00003de8       ??_C@_1O@GNNELBAP@?$AAd?$AAi?$AAv?$AA?9?$AAm?$AAv?$AA?$AA@ 00438de8     mfcs140d:nolib.obj
 0003:00003df8       ??_C@_1M@EJLEOGAE@?$AAe?$AAl?$AA?9?$AAg?$AAr?$AA?$AA@ 00438df8     mfcs140d:nolib.obj
 0003:00003e08       ??_C@_1M@GMPONJN@?$AAe?$AAn?$AA?9?$AAa?$AAu?$AA?$AA@ 00438e08     mfcs140d:nolib.obj
 0003:00003e18       ??_C@_1M@NIDIIPGF@?$AAe?$AAn?$AA?9?$AAb?$AAz?$AA?$AA@ 00438e18     mfcs140d:nolib.obj
 0003:00003e28       ??_C@_1M@JEHMIMFO@?$AAe?$AAn?$AA?9?$AAc?$AAa?$AA?$AA@ 00438e28     mfcs140d:nolib.obj
 0003:00003e38       ??_C@_1M@IGMJCDLA@?$AAe?$AAn?$AA?9?$AAc?$AAb?$AA?$AA@ 00438e38     mfcs140d:nolib.obj
 0003:00003e48       ??_C@_1M@BNFIGBKG@?$AAe?$AAn?$AA?9?$AAg?$AAb?$AA?$AA@ 00438e48     mfcs140d:nolib.obj
 0003:00003e58       ??_C@_1M@LKIFDIGP@?$AAe?$AAn?$AA?9?$AAi?$AAe?$AA?$AA@ 00438e58     mfcs140d:nolib.obj
 0003:00003e68       ??_C@_1M@PJKFGCCO@?$AAe?$AAn?$AA?9?$AAj?$AAm?$AA?$AA@ 00438e68     mfcs140d:nolib.obj
 0003:00003e78       ??_C@_1M@KPPKEPBO@?$AAe?$AAn?$AA?9?$AAn?$AAz?$AA?$AA@ 00438e78     mfcs140d:nolib.obj
 0003:00003e88       ??_C@_1M@GMDGLDOB@?$AAe?$AAn?$AA?9?$AAp?$AAh?$AA?$AA@ 00438e88     mfcs140d:nolib.obj
 0003:00003e98       ??_C@_1M@ONGIBJNA@?$AAe?$AAn?$AA?9?$AAt?$AAt?$AA?$AA@ 00438e98     mfcs140d:nolib.obj
 0003:00003ea8       ??_C@_1M@LLODPCMM@?$AAe?$AAn?$AA?9?$AAu?$AAs?$AA?$AA@ 00438ea8     mfcs140d:nolib.obj
 0003:00003eb8       ??_C@_1M@LAKFNPAN@?$AAe?$AAn?$AA?9?$AAz?$AAa?$AA?$AA@ 00438eb8     mfcs140d:nolib.obj
 0003:00003ec8       ??_C@_1M@MFNHNHEO@?$AAe?$AAn?$AA?9?$AAz?$AAw?$AA?$AA@ 00438ec8     mfcs140d:nolib.obj
 0003:00003ed8       ??_C@_1M@EJEINPHM@?$AAe?$AAs?$AA?9?$AAa?$AAr?$AA?$AA@ 00438ed8     mfcs140d:nolib.obj
 0003:00003ee8       ??_C@_1M@GNKPCCJA@?$AAe?$AAs?$AA?9?$AAb?$AAo?$AA?$AA@ 00438ee8     mfcs140d:nolib.obj
 0003:00003ef8       ??_C@_1M@LEEGFONL@?$AAe?$AAs?$AA?9?$AAc?$AAl?$AA?$AA@ 00438ef8     mfcs140d:nolib.obj
 0003:00003f08       ??_C@_1M@KGPDPBDF@?$AAe?$AAs?$AA?9?$AAc?$AAo?$AA?$AA@ 00438f08     mfcs140d:nolib.obj
 0003:00003f18       ??_C@_1M@EIAHOHH@?$AAe?$AAs?$AA?9?$AAc?$AAr?$AA?$AA@ 00438f18     mfcs140d:nolib.obj
 0003:00003f28       ??_C@_1M@LLPGMBIN@?$AAe?$AAs?$AA?9?$AAd?$AAo?$AA?$AA@ 00438f28     mfcs140d:nolib.obj
 0003:00003f38       ??_C@_1M@DKHMKNJA@?$AAe?$AAs?$AA?9?$AAe?$AAc?$AA?$AA@ 00438f38     mfcs140d:nolib.obj
 0003:00003f48       ??_C@_1M@GKGFPKAP@?$AAe?$AAs?$AA?9?$AAe?$AAs?$AA?$AA@ 00438f48     mfcs140d:nolib.obj
 0003:00003f58       ??_C@_1M@LKHKGDLN@?$AAe?$AAs?$AA?9?$AAg?$AAt?$AA?$AA@ 00438f58     mfcs140d:nolib.obj
 0003:00003f68       ??_C@_1M@HEIIGGJD@?$AAe?$AAs?$AA?9?$AAh?$AAn?$AA?$AA@ 00438f68     mfcs140d:nolib.obj
 0003:00003f78       ??_C@_1M@FBDHPPGD@?$AAe?$AAs?$AA?9?$AAm?$AAx?$AA?$AA@ 00438f78     mfcs140d:nolib.obj
 0003:00003f88       ??_C@_1M@DPAGLNDH@?$AAe?$AAs?$AA?9?$AAn?$AAi?$AA?$AA@ 00438f88     mfcs140d:nolib.obj
 0003:00003f98       ??_C@_1M@MDGOPGDD@?$AAe?$AAs?$AA?9?$AAp?$AAa?$AA?$AA@ 00438f98     mfcs140d:nolib.obj
 0003:00003fa8       ??_C@_1M@EMAMGBGE@?$AAe?$AAs?$AA?9?$AAp?$AAe?$AA?$AA@ 00438fa8     mfcs140d:nolib.obj
 0003:00003fb8       ??_C@_1M@IBMCAOEC@?$AAe?$AAs?$AA?9?$AAp?$AAr?$AA?$AA@ 00438fb8     mfcs140d:nolib.obj
 0003:00003fc8       ??_C@_1M@FGMDIJED@?$AAe?$AAs?$AA?9?$AAp?$AAy?$AA?$AA@ 00438fc8     mfcs140d:nolib.obj
 0003:00003fd8       ??_C@_1M@IIDEOLLL@?$AAe?$AAs?$AA?9?$AAs?$AAv?$AA?$AA@ 00438fd8     mfcs140d:nolib.obj
 0003:00003fe8       ??_C@_1M@GAOBIPA@?$AAe?$AAs?$AA?9?$AAu?$AAy?$AA?$AA@ 00438fe8     mfcs140d:nolib.obj
 0003:00003ff8       ??_C@_1M@JKFFICHJ@?$AAe?$AAs?$AA?9?$AAv?$AAe?$AA?$AA@ 00438ff8     mfcs140d:nolib.obj
 0003:00004008       ??_C@_1M@PNMLOJDF@?$AAe?$AAt?$AA?9?$AAe?$AAe?$AA?$AA@ 00439008     mfcs140d:nolib.obj
 0003:00004018       ??_C@_1M@GHHLIKEI@?$AAe?$AAu?$AA?9?$AAe?$AAs?$AA?$AA@ 00439018     mfcs140d:nolib.obj
 0003:00004028       ??_C@_1M@PBNONODE@?$AAf?$AAa?$AA?9?$AAi?$AAr?$AA?$AA@ 00439028     mfcs140d:nolib.obj
 0003:00004038       ??_C@_1M@JEEHPMIL@?$AAf?$AAi?$AA?9?$AAf?$AAi?$AA?$AA@ 00439038     mfcs140d:nolib.obj
 0003:00004048       ??_C@_1M@LMDCNDBA@?$AAf?$AAo?$AA?9?$AAf?$AAo?$AA?$AA@ 00439048     mfcs140d:nolib.obj
 0003:00004058       ??_C@_1M@JKEOHLDK@?$AAf?$AAr?$AA?9?$AAb?$AAe?$AA?$AA@ 00439058     mfcs140d:nolib.obj
 0003:00004068       ??_C@_1M@NOHADPMI@?$AAf?$AAr?$AA?9?$AAc?$AAa?$AA?$AA@ 00439068     mfcs140d:nolib.obj
 0003:00004078       ??_C@_1M@KDHIHAEC@?$AAf?$AAr?$AA?9?$AAc?$AAh?$AA?$AA@ 00439078     mfcs140d:nolib.obj
 0003:00004088       ??_C@_1M@MMBBFGAK@?$AAf?$AAr?$AA?9?$AAf?$AAr?$AA?$AA@ 00439088     mfcs140d:nolib.obj
 0003:00004098       ??_C@_1M@PAFNENNF@?$AAf?$AAr?$AA?9?$AAl?$AAu?$AA?$AA@ 00439098     mfcs140d:nolib.obj
 0003:000040a8       ??_C@_1M@EOHDJGDD@?$AAf?$AAr?$AA?9?$AAm?$AAc?$AA?$AA@ 004390a8     mfcs140d:nolib.obj
 0003:000040b8       ??_C@_1M@FAPLLOPF@?$AAg?$AAl?$AA?9?$AAe?$AAs?$AA?$AA@ 004390b8     mfcs140d:nolib.obj
 0003:000040c8       ??_C@_1M@FOPBFLOO@?$AAg?$AAu?$AA?9?$AAi?$AAn?$AA?$AA@ 004390c8     mfcs140d:nolib.obj
 0003:000040d8       ??_C@_1M@KBMCINPM@?$AAh?$AAe?$AA?9?$AAi?$AAl?$AA?$AA@ 004390d8     mfcs140d:nolib.obj
 0003:000040e8       ??_C@_1M@BBPHKFPJ@?$AAh?$AAi?$AA?9?$AAi?$AAn?$AA?$AA@ 004390e8     mfcs140d:nolib.obj
 0003:000040f8       ??_C@_1M@PMBNDPHD@?$AAh?$AAr?$AA?9?$AAb?$AAa?$AA?$AA@ 004390f8     mfcs140d:nolib.obj
 0003:00004108       ??_C@_1M@BPCKOEGE@?$AAh?$AAr?$AA?9?$AAh?$AAr?$AA?$AA@ 00439108     mfcs140d:nolib.obj
 0003:00004118       ??_C@_1M@GACBMHKE@?$AAh?$AAu?$AA?9?$AAh?$AAu?$AA?$AA@ 00439118     mfcs140d:nolib.obj
 0003:00004128       ??_C@_1M@MILPAJJC@?$AAh?$AAy?$AA?9?$AAa?$AAm?$AA?$AA@ 00439128     mfcs140d:nolib.obj
 0003:00004138       ??_C@_1M@BABBICEC@?$AAi?$AAd?$AA?9?$AAi?$AAd?$AA?$AA@ 00439138     mfcs140d:nolib.obj
 0003:00004148       ??_C@_1M@BIKNHHPF@?$AAi?$AAs?$AA?9?$AAi?$AAs?$AA?$AA@ 00439148     mfcs140d:nolib.obj
 0003:00004158       ??_C@_1M@NMPCJPHE@?$AAi?$AAt?$AA?9?$AAc?$AAh?$AA?$AA@ 00439158     mfcs140d:nolib.obj
 0003:00004168       ??_C@_1M@GHKGFEDF@?$AAi?$AAt?$AA?9?$AAi?$AAt?$AA?$AA@ 00439168     mfcs140d:nolib.obj
 0003:00004178       ??_C@_1M@NIEJCJJA@?$AAj?$AAa?$AA?9?$AAj?$AAp?$AA?$AA@ 00439178     mfcs140d:nolib.obj
 0003:00004188       ??_C@_1M@JILFNBIM@?$AAk?$AAa?$AA?9?$AAg?$AAe?$AA?$AA@ 00439188     mfcs140d:nolib.obj
 0003:00004198       ??_C@_1M@PACPMGPH@?$AAk?$AAk?$AA?9?$AAk?$AAz?$AA?$AA@ 00439198     mfcs140d:nolib.obj
 0003:000041a8       ??_C@_1M@IELFGMHA@?$AAk?$AAn?$AA?9?$AAi?$AAn?$AA?$AA@ 004391a8     mfcs140d:nolib.obj
 0003:000041b8       ??_C@_1O@IBBJHCH@?$AAk?$AAo?$AAk?$AA?9?$AAi?$AAn?$AA?$AA@ 004391b8     mfcs140d:nolib.obj
 0003:000041c8       ??_C@_1M@DMHAEOGC@?$AAk?$AAo?$AA?9?$AAk?$AAr?$AA?$AA@ 004391c8     mfcs140d:nolib.obj
 0003:000041d8       ??_C@_1M@HBAHBIGA@?$AAk?$AAy?$AA?9?$AAk?$AAg?$AA?$AA@ 004391d8     mfcs140d:nolib.obj
 0003:000041e8       ??_C@_1M@KPMILCJG@?$AAl?$AAt?$AA?9?$AAl?$AAt?$AA?$AA@ 004391e8     mfcs140d:nolib.obj
 0003:000041f8       ??_C@_1M@BDEKKCA@?$AAl?$AAv?$AA?9?$AAl?$AAv?$AA?$AA@ 004391f8     mfcs140d:nolib.obj
 0003:00004208       ??_C@_1M@ELCKCCJJ@?$AAm?$AAi?$AA?9?$AAn?$AAz?$AA?$AA@ 00439208     mfcs140d:nolib.obj
 0003:00004218       ??_C@_1M@CBOOLAPA@?$AAm?$AAk?$AA?9?$AAm?$AAk?$AA?$AA@ 00439218     mfcs140d:nolib.obj
 0003:00004228       ??_C@_1M@GPHNBJKN@?$AAm?$AAl?$AA?9?$AAi?$AAn?$AA?$AA@ 00439228     mfcs140d:nolib.obj
 0003:00004238       ??_C@_1M@PABJILIG@?$AAm?$AAn?$AA?9?$AAm?$AAn?$AA?$AA@ 00439238     mfcs140d:nolib.obj
 0003:00004248       ??_C@_1M@FGBKKIPG@?$AAm?$AAr?$AA?9?$AAi?$AAn?$AA?$AA@ 00439248     mfcs140d:nolib.obj
 0003:00004258       ??_C@_1M@NDBPDDAL@?$AAm?$AAs?$AA?9?$AAb?$AAn?$AA?$AA@ 00439258     mfcs140d:nolib.obj
 0003:00004268       ??_C@_1M@OPIHOOPI@?$AAm?$AAs?$AA?9?$AAm?$AAy?$AA?$AA@ 00439268     mfcs140d:nolib.obj
 0003:00004278       ??_C@_1M@PPDBCNFM@?$AAm?$AAt?$AA?9?$AAm?$AAt?$AA?$AA@ 00439278     mfcs140d:nolib.obj
 0003:00004288       ??_C@_1M@KDJDKMDD@?$AAn?$AAb?$AA?9?$AAn?$AAo?$AA?$AA@ 00439288     mfcs140d:nolib.obj
 0003:00004298       ??_C@_1M@KFCFLMJP@?$AAn?$AAl?$AA?9?$AAb?$AAe?$AA?$AA@ 00439298     mfcs140d:nolib.obj
 0003:000042a8       ??_C@_1M@KPOPDDGO@?$AAn?$AAl?$AA?9?$AAn?$AAl?$AA?$AA@ 004392a8     mfcs140d:nolib.obj
 0003:000042b8       ??_C@_1M@LJKPEMLN@?$AAn?$AAn?$AA?9?$AAn?$AAo?$AA?$AA@ 004392b8     mfcs140d:nolib.obj
 0003:000042c8       ??_C@_1M@BDGHHBFL@?$AAn?$AAs?$AA?9?$AAz?$AAa?$AA?$AA@ 004392c8     mfcs140d:nolib.obj
 0003:000042d8       ??_C@_1M@IDEHOAP@?$AAp?$AAa?$AA?9?$AAi?$AAn?$AA?$AA@ 004392d8     mfcs140d:nolib.obj
 0003:000042e8       ??_C@_1M@HDBKGOGH@?$AAp?$AAl?$AA?9?$AAp?$AAl?$AA?$AA@ 004392e8     mfcs140d:nolib.obj
 0003:000042f8       ??_C@_1M@LJLLCMEH@?$AAp?$AAt?$AA?9?$AAb?$AAr?$AA?$AA@ 004392f8     mfcs140d:nolib.obj
 0003:00004308       ??_C@_1M@NCMONAAL@?$AAp?$AAt?$AA?9?$AAp?$AAt?$AA?$AA@ 00439308     mfcs140d:nolib.obj
 0003:00004318       ??_C@_1O@EAKMAJDN@?$AAq?$AAu?$AAz?$AA?9?$AAb?$AAo?$AA?$AA@ 00439318     mfcs140d:nolib.obj
 0003:00004328       ??_C@_1O@BHHPIGDN@?$AAq?$AAu?$AAz?$AA?9?$AAe?$AAc?$AA?$AA@ 00439328     mfcs140d:nolib.obj
 0003:00004338       ??_C@_1O@GBAPEKMJ@?$AAq?$AAu?$AAz?$AA?9?$AAp?$AAe?$AA?$AA@ 00439338     mfcs140d:nolib.obj
 0003:00004348       ??_C@_1M@CLGLEFBO@?$AAr?$AAo?$AA?9?$AAr?$AAo?$AA?$AA@ 00439348     mfcs140d:nolib.obj
 0003:00004358       ??_C@_1M@CEEDODME@?$AAr?$AAu?$AA?9?$AAr?$AAu?$AA?$AA@ 00439358     mfcs140d:nolib.obj
 0003:00004368       ??_C@_1M@HPKKKMPP@?$AAs?$AAa?$AA?9?$AAi?$AAn?$AA?$AA@ 00439368     mfcs140d:nolib.obj
 0003:00004378       ??_C@_1M@BKMAIGOJ@?$AAs?$AAe?$AA?9?$AAf?$AAi?$AA?$AA@ 00439378     mfcs140d:nolib.obj
 0003:00004388       ??_C@_1M@NDPIFLFI@?$AAs?$AAe?$AA?9?$AAn?$AAo?$AA?$AA@ 00439388     mfcs140d:nolib.obj
 0003:00004398       ??_C@_1M@DANKKHJ@?$AAs?$AAe?$AA?9?$AAs?$AAe?$AA?$AA@ 00439398     mfcs140d:nolib.obj
 0003:000043a8       ??_C@_1M@PNBLONPJ@?$AAs?$AAk?$AA?9?$AAs?$AAk?$AA?$AA@ 004393a8     mfcs140d:nolib.obj
 0003:000043b8       ??_C@_1M@LFMODOAL@?$AAs?$AAl?$AA?9?$AAs?$AAi?$AA?$AA@ 004393b8     mfcs140d:nolib.obj
 0003:000043c8       ??_C@_1O@DFKOMPG@?$AAs?$AAm?$AAa?$AA?9?$AAn?$AAo?$AA?$AA@ 004393c8     mfcs140d:nolib.obj
 0003:000043d8       ??_C@_1O@NDKPBNNH@?$AAs?$AAm?$AAa?$AA?9?$AAs?$AAe?$AA?$AA@ 004393d8     mfcs140d:nolib.obj
 0003:000043e8       ??_C@_1O@PLLKBHAB@?$AAs?$AAm?$AAj?$AA?9?$AAn?$AAo?$AA?$AA@ 004393e8     mfcs140d:nolib.obj
 0003:000043f8       ??_C@_1O@CLEPOGCA@?$AAs?$AAm?$AAj?$AA?9?$AAs?$AAe?$AA?$AA@ 004393f8     mfcs140d:nolib.obj
 0003:00004408       ??_C@_1O@DLGJGKMK@?$AAs?$AAm?$AAn?$AA?9?$AAf?$AAi?$AA?$AA@ 00439408     mfcs140d:nolib.obj
 0003:00004418       ??_C@_1O@OJDJGAJC@?$AAs?$AAm?$AAs?$AA?9?$AAf?$AAi?$AA?$AA@ 00439418     mfcs140d:nolib.obj
 0003:00004428       ??_C@_1M@BOFOGHPB@?$AAs?$AAq?$AA?9?$AAa?$AAl?$AA?$AA@ 00439428     mfcs140d:nolib.obj
 0003:00004438       ??_C@_1BG@LJBBIPGB@?$AAs?$AAr?$AA?9?$AAb?$AAa?$AA?9?$AAc?$AAy?$AAr?$AAl?$AA?$AA@ 00439438     mfcs140d:nolib.obj
 0003:00004454       ??_C@_1BG@JLBENFOE@?$AAs?$AAr?$AA?9?$AAb?$AAa?$AA?9?$AAl?$AAa?$AAt?$AAn?$AA?$AA@ 00439454     mfcs140d:nolib.obj
 0003:00004470       ??_C@_1BG@KODPNHE@?$AAs?$AAr?$AA?9?$AAs?$AAp?$AA?9?$AAc?$AAy?$AAr?$AAl?$AA?$AA@ 00439470     mfcs140d:nolib.obj
 0003:0000448c       ??_C@_1BG@CIOGKHPB@?$AAs?$AAr?$AA?9?$AAs?$AAp?$AA?9?$AAl?$AAa?$AAt?$AAn?$AA?$AA@ 0043948c     mfcs140d:nolib.obj
 0003:000044a8       ??_C@_1M@NGFJLMAC@?$AAs?$AAv?$AA?9?$AAf?$AAi?$AA?$AA@ 004394a8     mfcs140d:nolib.obj
 0003:000044b8       ??_C@_1M@MPJEJAJC@?$AAs?$AAv?$AA?9?$AAs?$AAe?$AA?$AA@ 004394b8     mfcs140d:nolib.obj
 0003:000044c8       ??_C@_1M@MPNDHLFK@?$AAs?$AAw?$AA?9?$AAk?$AAe?$AA?$AA@ 004394c8     mfcs140d:nolib.obj
 0003:000044d8       ??_C@_1O@KOHBJJI@?$AAs?$AAy?$AAr?$AA?9?$AAs?$AAy?$AA?$AA@ 004394d8     mfcs140d:nolib.obj
 0003:000044e8       ??_C@_1M@LDCEFHA@?$AAt?$AAa?$AA?9?$AAi?$AAn?$AA?$AA@ 004394e8     mfcs140d:nolib.obj
 0003:000044f8       ??_C@_1M@CNJOFAK@?$AAt?$AAe?$AA?9?$AAi?$AAn?$AA?$AA@ 004394f8     mfcs140d:nolib.obj
 0003:00004508       ??_C@_1M@GNAECACD@?$AAt?$AAh?$AA?9?$AAt?$AAh?$AA?$AA@ 00439508     mfcs140d:nolib.obj
 0003:00004518       ??_C@_1M@CHBIHOJO@?$AAt?$AAn?$AA?9?$AAz?$AAa?$AA?$AA@ 00439518     mfcs140d:nolib.obj
 0003:00004528       ??_C@_1M@GCCMIGPJ@?$AAt?$AAr?$AA?9?$AAt?$AAr?$AA?$AA@ 00439528     mfcs140d:nolib.obj
 0003:00004538       ??_C@_1M@CELMCNBK@?$AAt?$AAt?$AA?9?$AAr?$AAu?$AA?$AA@ 00439538     mfcs140d:nolib.obj
 0003:00004548       ??_C@_1M@KLMCELGA@?$AAu?$AAk?$AA?9?$AAu?$AAa?$AA?$AA@ 00439548     mfcs140d:nolib.obj
 0003:00004558       ??_C@_1M@EPAJJAJF@?$AAu?$AAr?$AA?9?$AAp?$AAk?$AA?$AA@ 00439558     mfcs140d:nolib.obj
 0003:00004568       ??_C@_1BG@GEGPMCDJ@?$AAu?$AAz?$AA?9?$AAu?$AAz?$AA?9?$AAc?$AAy?$AAr?$AAl?$AA?$AA@ 00439568     mfcs140d:nolib.obj
 0003:00004584       ??_C@_1BG@EGGKJILM@?$AAu?$AAz?$AA?9?$AAu?$AAz?$AA?9?$AAl?$AAa?$AAt?$AAn?$AA?$AA@ 00439584     mfcs140d:nolib.obj
 0003:000045a0       ??_C@_1M@GFOCLFF@?$AAv?$AAi?$AA?9?$AAv?$AAn?$AA?$AA@ 004395a0     mfcs140d:nolib.obj
 0003:000045b0       ??_C@_1M@CPAMEDFI@?$AAx?$AAh?$AA?9?$AAz?$AAa?$AA?$AA@ 004395b0     mfcs140d:nolib.obj
 0003:000045c0       ??_C@_1O@EBKIFIGN@?$AAz?$AAh?$AA?9?$AAc?$AAh?$AAs?$AA?$AA@ 004395c0     mfcs140d:nolib.obj
 0003:000045d0       ??_C@_1O@NMHPGANE@?$AAz?$AAh?$AA?9?$AAc?$AAh?$AAt?$AA?$AA@ 004395d0     mfcs140d:nolib.obj
 0003:000045e0       ??_C@_1M@LPINJOMC@?$AAz?$AAh?$AA?9?$AAc?$AAn?$AA?$AA@ 004395e0     mfcs140d:nolib.obj
 0003:000045f0       ??_C@_1M@OCJEJODD@?$AAz?$AAh?$AA?9?$AAh?$AAk?$AA?$AA@ 004395f0     mfcs140d:nolib.obj
 0003:00004600       ??_C@_1M@DNDLJINH@?$AAz?$AAh?$AA?9?$AAm?$AAo?$AA?$AA@ 00439600     mfcs140d:nolib.obj
 0003:00004610       ??_C@_1M@MBFDNDND@?$AAz?$AAh?$AA?9?$AAs?$AAg?$AA?$AA@ 00439610     mfcs140d:nolib.obj
 0003:00004620       ??_C@_1M@IMEPLEPE@?$AAz?$AAh?$AA?9?$AAt?$AAw?$AA?$AA@ 00439620     mfcs140d:nolib.obj
 0003:00004630       ??_C@_1M@BBGHNHJP@?$AAz?$AAu?$AA?9?$AAz?$AAa?$AA?$AA@ 00439630     mfcs140d:nolib.obj
 0003:00004640       __pAtlLcidToLocaleNameTable 00439640     mfcs140d:nolib.obj
 0003:00004ecc       ??_C@_15EMKDOKLE@?$AAa?$AAr?$AA?$AA@ 00439ecc     mfcs140d:nolib.obj
 0003:00004ed4       ??_C@_15KNPADPLH@?$AAb?$AAg?$AA?$AA@ 00439ed4     mfcs140d:nolib.obj
 0003:00004edc       ??_C@_15EDMHLDMO@?$AAc?$AAa?$AA?$AA@ 00439edc     mfcs140d:nolib.obj
 0003:00004ee4       ??_C@_1O@BPEAJADD@?$AAz?$AAh?$AA?9?$AAC?$AAH?$AAS?$AA?$AA@ 00439ee4     mfcs140d:nolib.obj
 0003:00004ef4       ??_C@_15LJNHCMNK@?$AAc?$AAs?$AA?$AA@ 00439ef4     mfcs140d:nolib.obj
 0003:00004efc       ??_C@_15FOMCIDHG@?$AAd?$AAa?$AA?$AA@ 00439efc     mfcs140d:nolib.obj
 0003:00004f04       ??_C@_15NBKABECB@?$AAd?$AAe?$AA?$AA@ 00439f04     mfcs140d:nolib.obj
 0003:00004f0c       ??_C@_15GHPEIIAO@?$AAe?$AAl?$AA?$AA@ 00439f0c     mfcs140d:nolib.obj
 0003:00004f14       ??_C@_15MNPNEAIF@?$AAe?$AAn?$AA?$AA@ 00439f14     mfcs140d:nolib.obj
 0003:00004f1c       ??_C@_15GPIOMPMH@?$AAe?$AAs?$AA?$AA@ 00439f1c     mfcs140d:nolib.obj
 0003:00004f24       ??_C@_15NGLOAKJC@?$AAf?$AAi?$AA?$AA@ 00439f24     mfcs140d:nolib.obj
 0003:00004f2c       ??_C@_15FBKGNKAM@?$AAf?$AAr?$AA?$AA@ 00439f2c     mfcs140d:nolib.obj
 0003:00004f34       ??_C@_15KGGCNEFK@?$AAh?$AAe?$AA?$AA@ 00439f34     mfcs140d:nolib.obj
 0003:00004f3c       ??_C@_15PGHLIDMF@?$AAh?$AAu?$AA?$AA@ 00439f3c     mfcs140d:nolib.obj
 0003:00004f44       ??_C@_15BIEMAPLM@?$AAi?$AAs?$AA?$AA@ 00439f44     mfcs140d:nolib.obj
 0003:00004f4c       ??_C@_15IFJLDHAF@?$AAi?$AAt?$AA?$AA@ 00439f4c     mfcs140d:nolib.obj
 0003:00004f54       ??_C@_15GEMIOCAG@?$AAj?$AAa?$AA?$AA@ 00439f54     mfcs140d:nolib.obj
 0003:00004f5c       ??_C@_15EPELEGJA@?$AAk?$AAo?$AA?$AA@ 00439f5c     mfcs140d:nolib.obj
 0003:00004f64       ??_C@_15NDDHIMN@?$AAn?$AAl?$AA?$AA@ 00439f64     mfcs140d:nolib.obj
 0003:00004f6c       ??_C@_15BPIGNHCD@?$AAn?$AAo?$AA?$AA@ 00439f6c     mfcs140d:nolib.obj
 0003:00004f74       ??_C@_15DEOPBLCG@?$AAp?$AAl?$AA?$AA@ 00439f74     mfcs140d:nolib.obj
 0003:00004f7c       ??_C@_15KBECGEFG@?$AAp?$AAt?$AA?$AA@ 00439f7c     mfcs140d:nolib.obj
 0003:00004f84       ??_C@_15GLJCBFMD@?$AAr?$AAo?$AA?$AA@ 00439f84     mfcs140d:nolib.obj
 0003:00004f8c       ??_C@_15FEDGKCDI@?$AAr?$AAu?$AA?$AA@ 00439f8c     mfcs140d:nolib.obj
 0003:00004f94       ??_C@_15GLKMLLHM@?$AAh?$AAr?$AA?$AA@ 00439f94     mfcs140d:nolib.obj
 0003:00004f9c       ??_C@_15CPKMFBDB@?$AAs?$AAk?$AA?$AA@ 00439f9c     mfcs140d:nolib.obj
 0003:00004fa4       ??_C@_15BAAIOGMK@?$AAs?$AAq?$AA?$AA@ 00439fa4     mfcs140d:nolib.obj
 0003:00004fac       ??_C@_15INNPNOHD@?$AAs?$AAv?$AA?$AA@ 00439fac     mfcs140d:nolib.obj
 0003:00004fb4       ??_C@_15CABMMOGH@?$AAt?$AAh?$AA?$AA@ 00439fb4     mfcs140d:nolib.obj
 0003:00004fbc       ??_C@_15BPLIHJJM@?$AAt?$AAr?$AA?$AA@ 00439fbc     mfcs140d:nolib.obj
 0003:00004fc4       ??_C@_15NEOEKKDJ@?$AAu?$AAr?$AA?$AA@ 00439fc4     mfcs140d:nolib.obj
 0003:00004fcc       ??_C@_15NFICGAJK@?$AAi?$AAd?$AA?$AA@ 00439fcc     mfcs140d:nolib.obj
 0003:00004fd4       ??_C@_15PJPFLCCM@?$AAu?$AAk?$AA?$AA@ 00439fd4     mfcs140d:nolib.obj
 0003:00004fdc       ??_C@_15HPJPHDM@?$AAb?$AAe?$AA?$AA@ 00439fdc     mfcs140d:nolib.obj
 0003:00004fe4       ??_C@_15LCHLGJII@?$AAs?$AAl?$AA?$AA@ 00439fe4     mfcs140d:nolib.obj
 0003:00004fec       ??_C@_15PCFJPHHO@?$AAe?$AAt?$AA?$AA@ 00439fec     mfcs140d:nolib.obj
 0003:00004ff4       ??_C@_15HPFPGODN@?$AAl?$AAv?$AA?$AA@ 00439ff4     mfcs140d:nolib.obj
 0003:00004ffc       ??_C@_15NFFGKGLG@?$AAl?$AAt?$AA?$AA@ 00439ffc     mfcs140d:nolib.obj
 0003:00005004       ??_C@_15BDAKCCHN@?$AAf?$AAa?$AA?$AA@ 0043a004     mfcs140d:nolib.obj
 0003:0000500c       ??_C@_15NFGIAIAJ@?$AAv?$AAi?$AA?$AA@ 0043a00c     mfcs140d:nolib.obj
 0003:00005014       ??_C@_15LMKNDMHN@?$AAh?$AAy?$AA?$AA@ 0043a014     mfcs140d:nolib.obj
 0003:0000501c       ??_C@_15IJBHMCFL@?$AAa?$AAz?$AA?$AA@ 0043a01c     mfcs140d:nolib.obj
 0003:00005024       ??_C@_15EKOFJABL@?$AAe?$AAu?$AA?$AA@ 0043a024     mfcs140d:nolib.obj
 0003:0000502c       ??_C@_15BGHADCNK@?$AAm?$AAk?$AA?$AA@ 0043a02c     mfcs140d:nolib.obj
 0003:00005034       ??_C@_15JDNICKHM@?$AAa?$AAf?$AA?$AA@ 0043a034     mfcs140d:nolib.obj
 0003:0000503c       ??_C@_15KPJEDBKD@?$AAk?$AAa?$AA?$AA@ 0043a03c     mfcs140d:nolib.obj
 0003:00005044       ??_C@_15PDNFFFEO@?$AAf?$AAo?$AA?$AA@ 0043a044     mfcs140d:nolib.obj
 0003:0000504c       ??_C@_15OMLEGLOC@?$AAh?$AAi?$AA?$AA@ 0043a04c     mfcs140d:nolib.obj
 0003:00005054       ??_C@_15IDNNENKK@?$AAm?$AAs?$AA?$AA@ 0043a054     mfcs140d:nolib.obj
 0003:0000505c       ??_C@_15MACJNBMH@?$AAk?$AAk?$AA?$AA@ 0043a05c     mfcs140d:nolib.obj
 0003:00005064       ??_C@_15DKDJEOND@?$AAk?$AAy?$AA?$AA@ 0043a064     mfcs140d:nolib.obj
 0003:0000506c       ??_C@_15DFGDLJBG@?$AAs?$AAw?$AA?$AA@ 0043a06c     mfcs140d:nolib.obj
 0003:00005074       ??_C@_15BBFAICNG@?$AAu?$AAz?$AA?$AA@ 0043a074     mfcs140d:nolib.obj
 0003:0000507c       ??_C@_15DKNDCGEA@?$AAt?$AAt?$AA?$AA@ 0043a07c     mfcs140d:nolib.obj
 0003:00005084       ??_C@_15MGIFMDPL@?$AAp?$AAa?$AA?$AA@ 0043a084     mfcs140d:nolib.obj
 0003:0000508c       ??_C@_15HCNDBBA@?$AAg?$AAu?$AA?$AA@ 0043a08c     mfcs140d:nolib.obj
 0003:00005094       ??_C@_15FNBEIBON@?$AAt?$AAa?$AA?$AA@ 0043a094     mfcs140d:nolib.obj
 0003:0000509c       ??_C@_15NCHGBGLK@?$AAt?$AAe?$AA?$AA@ 0043a09c     mfcs140d:nolib.obj
 0003:000050a4       ??_C@_15PHPHCBPF@?$AAk?$AAn?$AA?$AA@ 0043a0a4     mfcs140d:nolib.obj
 0003:000050ac       ??_C@_15DLGBCKMP@?$AAm?$AAr?$AA?$AA@ 0043a0ac     mfcs140d:nolib.obj
 0003:000050b4       ??_C@_15EABBLBFF@?$AAs?$AAa?$AA?$AA@ 0043a0b4     mfcs140d:nolib.obj
 0003:000050bc       ??_C@_15CBKOMCOI@?$AAm?$AAn?$AA?$AA@ 0043a0bc     mfcs140d:nolib.obj
 0003:000050c4       ??_C@_15CKDMCJAF@?$AAg?$AAl?$AA?$AA@ 0043a0c4     mfcs140d:nolib.obj
 0003:000050cc       ??_C@_17CNJFBPG@?$AAk?$AAo?$AAk?$AA?$AA@ 0043a0cc     mfcs140d:nolib.obj
 0003:000050d8       ??_C@_17FFBJICPL@?$AAs?$AAy?$AAr?$AA?$AA@ 0043a0d8     mfcs140d:nolib.obj
 0003:000050e4       ??_C@_17KPNDCPAF@?$AAd?$AAi?$AAv?$AA?$AA@ 0043a0e4     mfcs140d:nolib.obj
 0003:000050f0       ??_C@_11LOCGONAA@?$AA?$AA@ 0043a0f0     mfcs140d:nolib.obj
 0003:000050f4       ??_C@_1M@OKAHONE@?$AAa?$AAr?$AA?9?$AAS?$AAA?$AA?$AA@ 0043a0f4     mfcs140d:nolib.obj
 0003:00005104       ??_C@_1M@FFFIGIGK@?$AAb?$AAg?$AA?9?$AAB?$AAG?$AA?$AA@ 0043a104     mfcs140d:nolib.obj
 0003:00005114       ??_C@_1M@BJNKEDC@?$AAc?$AAa?$AA?9?$AAE?$AAS?$AA?$AA@ 0043a114     mfcs140d:nolib.obj
 0003:00005124       ??_C@_1M@CLNBBOPM@?$AAz?$AAh?$AA?9?$AAT?$AAW?$AA?$AA@ 0043a124     mfcs140d:nolib.obj
 0003:00005134       ??_C@_1M@IJJHFJHA@?$AAc?$AAs?$AA?9?$AAC?$AAZ?$AA?$AA@ 0043a134     mfcs140d:nolib.obj
 0003:00005144       ??_C@_1M@CLPEOBGI@?$AAd?$AAa?$AA?9?$AAD?$AAK?$AA?$AA@ 0043a144     mfcs140d:nolib.obj
 0003:00005154       ??_C@_1M@MCMADGCB@?$AAd?$AAe?$AA?9?$AAD?$AAE?$AA?$AA@ 0043a154     mfcs140d:nolib.obj
 0003:00005164       ??_C@_1M@OOCKEMAM@?$AAe?$AAl?$AA?9?$AAG?$AAR?$AA?$AA@ 0043a164     mfcs140d:nolib.obj
 0003:00005174       ??_C@_1M@BMHNFIME@?$AAe?$AAn?$AA?9?$AAU?$AAS?$AA?$AA@ 0043a174     mfcs140d:nolib.obj
 0003:00005184       ??_C@_1M@DDNJFGID@?$AAf?$AAi?$AA?9?$AAF?$AAI?$AA?$AA@ 0043a184     mfcs140d:nolib.obj
 0003:00005194       ??_C@_1M@GLIPPMAC@?$AAf?$AAr?$AA?9?$AAF?$AAR?$AA?$AA@ 0043a194     mfcs140d:nolib.obj
 0003:000051a4       ??_C@_1M@GFMCHPE@?$AAh?$AAe?$AA?9?$AAI?$AAL?$AA?$AA@ 0043a1a4     mfcs140d:nolib.obj
 0003:000051b4       ??_C@_1M@MHLPGNKM@?$AAh?$AAu?$AA?9?$AAH?$AAU?$AA?$AA@ 0043a1b4     mfcs140d:nolib.obj
 0003:000051c4       ??_C@_1M@LPDDNNPN@?$AAi?$AAs?$AA?9?$AAI?$AAS?$AA?$AA@ 0043a1c4     mfcs140d:nolib.obj
 0003:000051d4       ??_C@_1M@MADIPODN@?$AAi?$AAt?$AA?9?$AAI?$AAT?$AA?$AA@ 0043a1d4     mfcs140d:nolib.obj
 0003:000051e4       ??_C@_1M@HPNHIDJI@?$AAj?$AAa?$AA?9?$AAJ?$AAP?$AA?$AA@ 0043a1e4     mfcs140d:nolib.obj
 0003:000051f4       ??_C@_1M@JLOOOEGK@?$AAk?$AAo?$AA?9?$AAK?$AAR?$AA?$AA@ 0043a1f4     mfcs140d:nolib.obj
 0003:00005204       ??_C@_1M@IHBJJGG@?$AAn?$AAl?$AA?9?$AAN?$AAL?$AA?$AA@ 0043a204     mfcs140d:nolib.obj
 0003:00005214       ??_C@_1M@EANAGDL@?$AAn?$AAb?$AA?9?$AAN?$AAO?$AA?$AA@ 0043a214     mfcs140d:nolib.obj
 0003:00005224       ??_C@_1M@NEIEMEGP@?$AAp?$AAl?$AA?9?$AAP?$AAL?$AA?$AA@ 0043a224     mfcs140d:nolib.obj
 0003:00005234       ??_C@_1M@BOCFIGEP@?$AAp?$AAt?$AA?9?$AAB?$AAR?$AA?$AA@ 0043a234     mfcs140d:nolib.obj
 0003:00005244       ??_C@_1M@IMPFOPBG@?$AAr?$AAo?$AA?9?$AAR?$AAO?$AA?$AA@ 0043a244     mfcs140d:nolib.obj
 0003:00005254       ??_C@_1M@IDNNEJMM@?$AAr?$AAu?$AA?9?$AAR?$AAU?$AA?$AA@ 0043a254     mfcs140d:nolib.obj
 0003:00005264       ??_C@_1M@LILEEOGM@?$AAh?$AAr?$AA?9?$AAH?$AAR?$AA?$AA@ 0043a264     mfcs140d:nolib.obj
 0003:00005274       ??_C@_1M@FKIFEHPB@?$AAs?$AAk?$AA?9?$AAS?$AAK?$AA?$AA@ 0043a274     mfcs140d:nolib.obj
 0003:00005284       ??_C@_1M@LJMAMNPJ@?$AAs?$AAq?$AA?9?$AAA?$AAL?$AA?$AA@ 0043a284     mfcs140d:nolib.obj
 0003:00005294       ??_C@_1M@GIAKDKJK@?$AAs?$AAv?$AA?9?$AAS?$AAE?$AA?$AA@ 0043a294     mfcs140d:nolib.obj
 0003:000052a4       ??_C@_1M@MKJKIKCL@?$AAt?$AAh?$AA?9?$AAT?$AAH?$AA?$AA@ 0043a2a4     mfcs140d:nolib.obj
 0003:000052b4       ??_C@_1M@MFLCCMPB@?$AAt?$AAr?$AA?9?$AAT?$AAR?$AA?$AA@ 0043a2b4     mfcs140d:nolib.obj
 0003:000052c4       ??_C@_1M@OIJHDKJN@?$AAu?$AAr?$AA?9?$AAP?$AAK?$AA?$AA@ 0043a2c4     mfcs140d:nolib.obj
 0003:000052d4       ??_C@_1M@LHIPCIEK@?$AAi?$AAd?$AA?9?$AAI?$AAD?$AA?$AA@ 0043a2d4     mfcs140d:nolib.obj
 0003:000052e4       ??_C@_1M@MFMOBGI@?$AAu?$AAk?$AA?9?$AAU?$AAA?$AA?$AA@ 0043a2e4     mfcs140d:nolib.obj
 0003:000052f4       ??_C@_1M@OBGLJIPL@?$AAb?$AAe?$AA?9?$AAB?$AAY?$AA?$AA@ 0043a2f4     mfcs140d:nolib.obj
 0003:00005304       ??_C@_1M@BCFAJEAD@?$AAs?$AAl?$AA?9?$AAS?$AAI?$AA?$AA@ 0043a304     mfcs140d:nolib.obj
 0003:00005314       ??_C@_1M@FKFFEDDN@?$AAe?$AAt?$AA?9?$AAE?$AAE?$AA?$AA@ 0043a314     mfcs140d:nolib.obj
 0003:00005324       ??_C@_1M@KGKKAACI@?$AAl?$AAv?$AA?9?$AAL?$AAV?$AA?$AA@ 0043a324     mfcs140d:nolib.obj
 0003:00005334       ??_C@_1M@IFGBIJO@?$AAl?$AAt?$AA?9?$AAL?$AAT?$AA?$AA@ 0043a334     mfcs140d:nolib.obj
 0003:00005344       ??_C@_1M@FGEAHEDM@?$AAf?$AAa?$AA?9?$AAI?$AAR?$AA?$AA@ 0043a344     mfcs140d:nolib.obj
 0003:00005354       ??_C@_1M@KBMAIBFN@?$AAv?$AAi?$AA?9?$AAV?$AAN?$AA?$AA@ 0043a354     mfcs140d:nolib.obj
 0003:00005364       ??_C@_1M@GPCBKDJK@?$AAh?$AAy?$AA?9?$AAA?$AAM?$AA?$AA@ 0043a364     mfcs140d:nolib.obj
 0003:00005374       ??_C@_1BG@BECMDDJB@?$AAa?$AAz?$AA?9?$AAA?$AAZ?$AA?9?$AAL?$AAa?$AAt?$AAn?$AA?$AA@ 0043a374     mfcs140d:nolib.obj
 0003:00005390       ??_C@_1M@MAOFCAEA@?$AAe?$AAu?$AA?9?$AAE?$AAS?$AA?$AA@ 0043a390     mfcs140d:nolib.obj
 0003:000053a0       ??_C@_1M@IGHABKPI@?$AAm?$AAk?$AA?9?$AAM?$AAK?$AA?$AA@ 0043a3a0     mfcs140d:nolib.obj
 0003:000053b0       ??_C@_1M@IAIGNEJG@?$AAt?$AAn?$AA?9?$AAZ?$AAA?$AA?$AA@ 0043a3b0     mfcs140d:nolib.obj
 0003:000053c0       ??_C@_1M@IIJCOJFA@?$AAx?$AAh?$AA?9?$AAZ?$AAA?$AA?$AA@ 0043a3c0     mfcs140d:nolib.obj
 0003:000053d0       ??_C@_1M@LGPJHNJH@?$AAz?$AAu?$AA?9?$AAZ?$AAA?$AA?$AA@ 0043a3d0     mfcs140d:nolib.obj
 0003:000053e0       ??_C@_1M@HOKAOIO@?$AAa?$AAf?$AA?9?$AAZ?$AAA?$AA?$AA@ 0043a3e0     mfcs140d:nolib.obj
 0003:000053f0       ??_C@_1M@DPCLHLIE@?$AAk?$AAa?$AA?9?$AAG?$AAE?$AA?$AA@ 0043a3f0     mfcs140d:nolib.obj
 0003:00005400       ??_C@_1M@BLKMHJBI@?$AAf?$AAo?$AA?9?$AAF?$AAO?$AA?$AA@ 0043a400     mfcs140d:nolib.obj
 0003:00005410       ??_C@_1M@LGGJAPPB@?$AAh?$AAi?$AA?9?$AAI?$AAN?$AA?$AA@ 0043a410     mfcs140d:nolib.obj
 0003:00005420       ??_C@_1M@FIKPIHFE@?$AAm?$AAt?$AA?9?$AAM?$AAT?$AA?$AA@ 0043a420     mfcs140d:nolib.obj
 0003:00005430       ??_C@_1M@HEGGPBFA@?$AAs?$AAe?$AA?9?$AAN?$AAO?$AA?$AA@ 0043a430     mfcs140d:nolib.obj
 0003:00005440       ??_C@_1M@EIBJEEPA@?$AAm?$AAs?$AA?9?$AAM?$AAY?$AA?$AA@ 0043a440     mfcs140d:nolib.obj
 0003:00005450       ??_C@_1M@FHLBGMPP@?$AAk?$AAk?$AA?9?$AAK?$AAZ?$AA?$AA@ 0043a450     mfcs140d:nolib.obj
 0003:00005460       ??_C@_1M@NGJJLCGI@?$AAk?$AAy?$AA?9?$AAK?$AAG?$AA?$AA@ 0043a460     mfcs140d:nolib.obj
 0003:00005470       ??_C@_1M@GIENNBFC@?$AAs?$AAw?$AA?9?$AAK?$AAE?$AA?$AA@ 0043a470     mfcs140d:nolib.obj
 0003:00005480       ??_C@_1BG@NDGMJIMJ@?$AAu?$AAz?$AA?9?$AAU?$AAZ?$AA?9?$AAL?$AAa?$AAt?$AAn?$AA?$AA@ 0043a480     mfcs140d:nolib.obj
 0003:0000549c       ??_C@_1M@IDCCIHBC@?$AAt?$AAt?$AA?9?$AAR?$AAU?$AA?$AA@ 0043a49c     mfcs140d:nolib.obj
 0003:000054ac       ??_C@_1M@LOICPMOJ@?$AAb?$AAn?$AA?9?$AAI?$AAN?$AA?$AA@ 0043a4ac     mfcs140d:nolib.obj
 0003:000054bc       ??_C@_1M@KPKKNEAH@?$AAp?$AAa?$AA?9?$AAI?$AAN?$AA?$AA@ 0043a4bc     mfcs140d:nolib.obj
 0003:000054cc       ??_C@_1M@PJGPPBOG@?$AAg?$AAu?$AA?9?$AAI?$AAN?$AA?$AA@ 0043a4cc     mfcs140d:nolib.obj
 0003:000054dc       ??_C@_1M@KMKMOPHI@?$AAt?$AAa?$AA?9?$AAI?$AAN?$AA?$AA@ 0043a4dc     mfcs140d:nolib.obj
 0003:000054ec       ??_C@_1M@KFEHEPAC@?$AAt?$AAe?$AA?9?$AAI?$AAN?$AA?$AA@ 0043a4ec     mfcs140d:nolib.obj
 0003:000054fc       ??_C@_1M@CDCLMGHI@?$AAk?$AAn?$AA?9?$AAI?$AAN?$AA?$AA@ 0043a4fc     mfcs140d:nolib.obj
 0003:0000550c       ??_C@_1M@MIODLDKF@?$AAm?$AAl?$AA?9?$AAI?$AAN?$AA?$AA@ 0043a50c     mfcs140d:nolib.obj
 0003:0000551c       ??_C@_1M@PBIEACPO@?$AAm?$AAr?$AA?9?$AAI?$AAN?$AA?$AA@ 0043a51c     mfcs140d:nolib.obj
 0003:0000552c       ??_C@_1M@NIDEAGPH@?$AAs?$AAa?$AA?9?$AAI?$AAN?$AA?$AA@ 0043a52c     mfcs140d:nolib.obj
 0003:0000553c       ??_C@_1M@FHIHCBIO@?$AAm?$AAn?$AA?9?$AAM?$AAN?$AA?$AA@ 0043a53c     mfcs140d:nolib.obj
 0003:0000554c       ??_C@_1M@JAIJPENP@?$AAc?$AAy?$AA?9?$AAG?$AAB?$AA?$AA@ 0043a54c     mfcs140d:nolib.obj
 0003:0000555c       ??_C@_1M@PHGFBEPN@?$AAg?$AAl?$AA?9?$AAE?$AAS?$AA?$AA@ 0043a55c     mfcs140d:nolib.obj
 0003:0000556c       ??_C@_1O@KPIPDNCP@?$AAk?$AAo?$AAk?$AA?9?$AAI?$AAN?$AA?$AA@ 0043a56c     mfcs140d:nolib.obj
 0003:0000557c       ??_C@_1O@KNHJLDJA@?$AAs?$AAy?$AAr?$AA?9?$AAS?$AAY?$AA?$AA@ 0043a57c     mfcs140d:nolib.obj
 0003:0000558c       ??_C@_1O@MKEKBLAH@?$AAd?$AAi?$AAv?$AA?9?$AAM?$AAV?$AA?$AA@ 0043a58c     mfcs140d:nolib.obj
 0003:0000559c       ??_C@_1O@OHDCKDDF@?$AAq?$AAu?$AAz?$AA?9?$AAB?$AAO?$AA?$AA@ 0043a59c     mfcs140d:nolib.obj
 0003:000055ac       ??_C@_1M@LEPJNLFD@?$AAn?$AAs?$AA?9?$AAZ?$AAA?$AA?$AA@ 0043a5ac     mfcs140d:nolib.obj
 0003:000055bc       ??_C@_1M@OMLEIIJB@?$AAm?$AAi?$AA?9?$AAN?$AAZ?$AA?$AA@ 0043a5bc     mfcs140d:nolib.obj
 0003:000055cc       ??_C@_1M@PMPEAILG@?$AAa?$AAr?$AA?9?$AAI?$AAQ?$AA?$AA@ 0043a5cc     mfcs140d:nolib.obj
 0003:000055dc       ??_C@_1M@BIBDDEMK@?$AAz?$AAh?$AA?9?$AAC?$AAN?$AA?$AA@ 0043a5dc     mfcs140d:nolib.obj
 0003:000055ec       ??_C@_1M@CNKPNOEE@?$AAd?$AAe?$AA?9?$AAC?$AAH?$AA?$AA@ 0043a5ec     mfcs140d:nolib.obj
 0003:000055fc       ??_C@_1M@LKMGMLKO@?$AAe?$AAn?$AA?9?$AAG?$AAB?$AA?$AA@ 0043a5fc     mfcs140d:nolib.obj
 0003:0000560c       ??_C@_1M@PGKJFFGL@?$AAe?$AAs?$AA?9?$AAM?$AAX?$AA?$AA@ 0043a60c     mfcs140d:nolib.obj
 0003:0000561c       ??_C@_1M@DNNANBDC@?$AAf?$AAr?$AA?9?$AAB?$AAE?$AA?$AA@ 0043a61c     mfcs140d:nolib.obj
 0003:0000562c       ??_C@_1M@HLGMDFHM@?$AAi?$AAt?$AA?9?$AAC?$AAH?$AA?$AA@ 0043a62c     mfcs140d:nolib.obj
 0003:0000563c       ??_C@_1M@CLLBGJH@?$AAn?$AAl?$AA?9?$AAB?$AAE?$AA?$AA@ 0043a63c     mfcs140d:nolib.obj
 0003:0000564c       ??_C@_1M@BODBOGLF@?$AAn?$AAn?$AA?9?$AAN?$AAO?$AA?$AA@ 0043a64c     mfcs140d:nolib.obj
 0003:0000565c       ??_C@_1M@HFFAHKAD@?$AAp?$AAt?$AA?9?$AAP?$AAT?$AA?$AA@ 0043a65c     mfcs140d:nolib.obj
 0003:0000566c       ??_C@_1BG@LNOAKHIE@?$AAs?$AAr?$AA?9?$AAS?$AAP?$AA?9?$AAL?$AAa?$AAt?$AAn?$AA?$AA@ 0043a66c     mfcs140d:nolib.obj
 0003:00005688       ??_C@_1M@HBMHBGAK@?$AAs?$AAv?$AA?9?$AAF?$AAI?$AA?$AA@ 0043a688     mfcs140d:nolib.obj
 0003:00005698       ??_C@_1BG@DGCJGJBE@?$AAa?$AAz?$AA?9?$AAA?$AAZ?$AA?9?$AAC?$AAy?$AAr?$AAl?$AA?$AA@ 0043a698     mfcs140d:nolib.obj
 0003:000056b4       ??_C@_1M@KEJDAAHB@?$AAs?$AAe?$AA?9?$AAS?$AAE?$AA?$AA@ 0043a6b4     mfcs140d:nolib.obj
 0003:000056c4       ??_C@_1M@HEIBJJAD@?$AAm?$AAs?$AA?9?$AAB?$AAN?$AA?$AA@ 0043a6c4     mfcs140d:nolib.obj
 0003:000056d4       ??_C@_1BG@PBGJMCEM@?$AAu?$AAz?$AA?9?$AAU?$AAZ?$AA?9?$AAC?$AAy?$AAr?$AAl?$AA?$AA@ 0043a6d4     mfcs140d:nolib.obj
 0003:000056f0       ??_C@_1O@LAOBCMDF@?$AAq?$AAu?$AAz?$AA?9?$AAE?$AAC?$AA?$AA@ 0043a6f0     mfcs140d:nolib.obj
 0003:00005700       ??_C@_1M@POEEMAIO@?$AAa?$AAr?$AA?9?$AAE?$AAG?$AA?$AA@ 0043a700     mfcs140d:nolib.obj
 0003:00005710       ??_C@_1M@EFAKDEDL@?$AAz?$AAh?$AA?9?$AAH?$AAK?$AA?$AA@ 0043a710     mfcs140d:nolib.obj
 0003:00005720       ??_C@_1M@HKKIJHGI@?$AAd?$AAe?$AA?9?$AAA?$AAT?$AA?$AA@ 0043a720     mfcs140d:nolib.obj
 0003:00005730       ??_C@_1M@KBFBEHJF@?$AAe?$AAn?$AA?9?$AAA?$AAU?$AA?$AA@ 0043a730     mfcs140d:nolib.obj
 0003:00005740       ??_C@_1M@MNPLFAAH@?$AAe?$AAs?$AA?9?$AAE?$AAS?$AA?$AA@ 0043a740     mfcs140d:nolib.obj
 0003:00005750       ??_C@_1M@HJOOJFMA@?$AAf?$AAr?$AA?9?$AAC?$AAA?$AA?$AA@ 0043a750     mfcs140d:nolib.obj
 0003:00005760       ??_C@_1BG@JPOFPNAB@?$AAs?$AAr?$AA?9?$AAS?$AAP?$AA?9?$AAC?$AAy?$AAr?$AAl?$AA?$AA@ 0043a760     mfcs140d:nolib.obj
 0003:0000577c       ??_C@_1M@LNFOCMOB@?$AAs?$AAe?$AA?9?$AAF?$AAI?$AA?$AA@ 0043a77c     mfcs140d:nolib.obj
 0003:0000578c       ??_C@_1O@MGJBOAMB@?$AAq?$AAu?$AAz?$AA?9?$AAP?$AAE?$AA?$AA@ 0043a78c     mfcs140d:nolib.obj
 0003:0000579c       ??_C@_1M@GJINLBOK@?$AAa?$AAr?$AA?9?$AAL?$AAY?$AA?$AA@ 0043a79c     mfcs140d:nolib.obj
 0003:000057ac       ??_C@_1M@GGMNHJNL@?$AAz?$AAh?$AA?9?$AAS?$AAG?$AA?$AA@ 0043a7ac     mfcs140d:nolib.obj
 0003:000057bc       ??_C@_1M@HOIKODND@?$AAd?$AAe?$AA?9?$AAL?$AAU?$AA?$AA@ 0043a7bc     mfcs140d:nolib.obj
 0003:000057cc       ??_C@_1M@DDOCCGFG@?$AAe?$AAn?$AA?9?$AAC?$AAA?$AA?$AA@ 0043a7cc     mfcs140d:nolib.obj
 0003:000057dc       ??_C@_1M@BNOEMJLF@?$AAe?$AAs?$AA?9?$AAG?$AAT?$AA?$AA@ 0043a7dc     mfcs140d:nolib.obj
 0003:000057ec       ??_C@_1M@EOGNKEK@?$AAf?$AAr?$AA?9?$AAC?$AAH?$AA?$AA@ 0043a7ec     mfcs140d:nolib.obj
 0003:000057fc       ??_C@_0O@JKAFBCMB@CreateActCtxW?$AA@ 0043a7fc     mfcs140d:nolib.obj
 0003:0000580c       ??_C@_0P@CECBPMJL@ActivateActCtx?$AA@ 0043a80c     mfcs140d:nolib.obj
 0003:00005820       ??_C@_0BB@NPIOCCPF@DeactivateActCtx?$AA@ 0043a820     mfcs140d:nolib.obj
 0003:00005834       ??_C@_0BJ@MGNMALIC@FindActCtxSectionStringW?$AA@ 0043a834     mfcs140d:nolib.obj
 0003:00005854       ??_C@_0N@IMINIHMJ@QueryActCtxW?$AA@ 0043a854     mfcs140d:nolib.obj
 0003:00005864       ??_C@_0BD@GIGEJCNH@GetModuleHandleExW?$AA@ 0043a864     mfcs140d:nolib.obj
 0003:0000587c       ??_C@_1BK@BFMCNHEO@?$AAC?$AAo?$AAm?$AAc?$AAt?$AAl?$AA3?$AA2?$AA?4?$AAd?$AAl?$AAl?$AA?$AA@ 0043a87c     mfcs140d:nolib.obj
 0003:0000589c       ?debugString@?4??IsolationAwarePrivatenPgViNgRzlnPgpgk@@9@4@4QBDB 0043a89c     mfcs140d:nolib.obj
 0003:000058e4       ?c@?1??WinbaseIsolationAwarePrivatetRgCebPnQQeRff_xReaRYQP_QYY@@9@4@4UIsolationAwarePrivate_pBAFGnAG_zBqHyr_vAsB@@B 0043a8e4     mfcs140d:nolib.obj
 0003:000058f8       ??_C@_1BK@EJBALEBG@?$AAK?$AAe?$AAr?$AAn?$AAe?$AAl?$AA3?$AA2?$AA?4?$AAd?$AAl?$AAl?$AA?$AA@ 0043a8f8     mfcs140d:nolib.obj
 0003:00005918       ??_C@_0N@HAOHNMDE@Kernel32?4dll?$AA@ 0043a918     mfcs140d:nolib.obj
 0003:00005928       ??_C@_1GK@GJNCADDA@?$AAf?$AA?3?$AA?2?$AAd?$AAd?$AA?2?$AAv?$AAc?$AAt?$AAo?$AAo?$AAl?$AAs?$AA?2?$AAv?$AAc?$AA7?$AAl?$AAi?$AAb?$AAs?$AA?2?$AAs?$AAh?$AAi?$AAp?$AA?2?$AAa?$AAt?$AAl?$AAm?$AAf@ 0043a928     mfcs140d:nolib.obj
 0003:000059a8       ??_C@_1GK@BKHJGBLD@?$AAf?$AA?3?$AA?2?$AAd?$AAd?$AA?2?$AAv?$AAc?$AAt?$AAo?$AAo?$AAl?$AAs?$AA?2?$AAv?$AAc?$AA7?$AAl?$AAi?$AAb?$AAs?$AA?2?$AAs?$AAh?$AAi?$AAp?$AA?2?$AAa?$AAt?$AAl?$AAm?$AAf@ 0043a9a8     mfcs140d:nolib.obj
 0003:00005a28       ??_C@_1GG@GCEHDONA@?$AAf?$AA?3?$AA?2?$AAd?$AAd?$AA?2?$AAv?$AAc?$AAt?$AAo?$AAo?$AAl?$AAs?$AA?2?$AAv?$AAc?$AA7?$AAl?$AAi?$AAb?$AAs?$AA?2?$AAs?$AAh?$AAi?$AAp?$AA?2?$AAa?$AAt?$AAl?$AAm?$AAf@ 0043aa28     mfcs140d:nolib.obj
 0003:00005aa8       ??_C@_1GO@KJNAPAOI@?$AAf?$AA?3?$AA?2?$AAd?$AAd?$AA?2?$AAv?$AAc?$AAt?$AAo?$AAo?$AAl?$AAs?$AA?2?$AAv?$AAc?$AA7?$AAl?$AAi?$AAb?$AAs?$AA?2?$AAs?$AAh?$AAi?$AAp?$AA?2?$AAa?$AAt?$AAl?$AAm?$AAf@ 0043aaa8     mfcs140d:nolib.obj
 0003:00005b30       ??_C@_1GI@HPMIGMAH@?$AAf?$AA?3?$AA?2?$AAd?$AAd?$AA?2?$AAv?$AAc?$AAt?$AAo?$AAo?$AAl?$AAs?$AA?2?$AAv?$AAc?$AA7?$AAl?$AAi?$AAb?$AAs?$AA?2?$AAs?$AAh?$AAi?$AAp?$AA?2?$AAa?$AAt?$AAl?$AAm?$AAf@ 0043ab30     mfcs140d:nolib.obj
 0003:00005bac       ??_C@_0DE@CLCFEHFD@f?3?2dd?2vctools?2vc7libs?2ship?2atlmf@ 0043abac     mfcs140d:nolib.obj
 0003:00005bf0       ??_C@_1GG@OKJJMJGD@?$AAf?$AA?3?$AA?2?$AAd?$AAd?$AA?2?$AAv?$AAc?$AAt?$AAo?$AAo?$AAl?$AAs?$AA?2?$AAv?$AAc?$AA7?$AAl?$AAi?$AAb?$AAs?$AA?2?$AAs?$AAh?$AAi?$AAp?$AA?2?$AAa?$AAt?$AAl?$AAm?$AAf@ 0043abf0     mfcs140d:nolib.obj
 0003:00005c70       ??_C@_1HA@EFGOBFOA@?$AAf?$AA?3?$AA?2?$AAd?$AAd?$AA?2?$AAv?$AAc?$AAt?$AAo?$AAo?$AAl?$AAs?$AA?2?$AAv?$AAc?$AA7?$AAl?$AAi?$AAb?$AAs?$AA?2?$AAs?$AAh?$AAi?$AAp?$AA?2?$AAa?$AAt?$AAl?$AAm?$AAf@ 0043ac70     mfcs140d:nolib.obj
 0003:00005cfc       ??_7type_info@@6B@         0043acfc     msvcrtd:std_type_info_static.obj
 0003:00005dc0       ??_C@_0NN@NGPKDKPD@The?5value?5of?5ESP?5was?5not?5properl@ 0043adc0     msvcrtd:_error_.obj
 0003:00005ed0       ??_C@_0BBN@GPMLNJCF@A?5cast?5to?5a?5smaller?5data?5type?5ha@ 0043aed0     msvcrtd:_error_.obj
 0003:00006028       ??_C@_0BN@FFOINMNJ@Stack?5memory?5was?5corrupted?6?$AN?$AA@ 0043b028     msvcrtd:_error_.obj
 0003:0000604c       ??_C@_0DG@HKJMLLLP@A?5local?5variable?5was?5used?5before@ 0043b04c     msvcrtd:_error_.obj
 0003:0000608c       ??_C@_0CM@NGINOKPC@Stack?5memory?5around?5_alloca?5was?5@ 0043b08c     msvcrtd:_error_.obj
 0003:000060c0       ??_C@_0BO@GNIAFIKK@Unknown?5Runtime?5Check?5Error?6?$AN?$AA@ 0043b0c0     msvcrtd:_error_.obj
 0003:000060e8       ??_C@_1GM@OLMCBDMB@?$AAR?$AAu?$AAn?$AAt?$AAi?$AAm?$AAe?$AA?5?$AAC?$AAh?$AAe?$AAc?$AAk?$AA?5?$AAE?$AAr?$AAr?$AAo?$AAr?$AA?4?$AA?6?$AA?$AN?$AA?5?$AAU?$AAn?$AAa?$AAb?$AAl?$AAe?$AA?5?$AAt?$AAo@ 0043b0e8     msvcrtd:_error_.obj
 0003:00006170       ??_C@_1EA@NFKNIFJP@?$AAR?$AAu?$AAn?$AA?9?$AAT?$AAi?$AAm?$AAe?$AA?5?$AAC?$AAh?$AAe?$AAc?$AAk?$AA?5?$AAF?$AAa?$AAi?$AAl?$AAu?$AAr?$AAe?$AA?5?$AA?$CD?$AA?$CF?$AAd?$AA?5?$AA?9?$AA?5?$AA?$CF?$AAs?$AA?$AA@ 0043b170     msvcrtd:_error_.obj
 0003:000061bc       ??_C@_0BB@PFFGGCJP@Unknown?5Filename?$AA@ 0043b1bc     msvcrtd:_error_.obj
 0003:000061d0       ??_C@_0BE@GNBOBNCK@Unknown?5Module?5Name?$AA@ 0043b1d0     msvcrtd:_error_.obj
 0003:000061e8       ??_C@_0CA@IODNCDPG@Run?9Time?5Check?5Failure?5?$CD?$CFd?5?9?5?$CFs?$AA@ 0043b1e8     msvcrtd:_error_.obj
 0003:00006210       ??_C@_0CG@IAFNJNEE@Stack?5corrupted?5near?5unknown?5var@ 0043b210     msvcrtd:_error_.obj
 0003:00006240       ??_C@_05MKKEDADM@?$CF?42X?5?$AA@ 0043b240     msvcrtd:_error_.obj
 0003:00006248       ??_C@_0EJ@LJKNEOLN@Stack?5area?5around?5_alloca?5memory@ 0043b248     msvcrtd:_error_.obj
 0003:000062a0       ??_C@_08OMAHNMHJ@?6Data?3?5?$DM?$AA@ 0043b2a0     msvcrtd:_error_.obj
 0003:000062ac       ??_C@_0CK@DKGBICFE@?6Allocation?5number?5within?5this?5f@ 0043b2ac     msvcrtd:_error_.obj
 0003:000062e0       ??_C@_07DFDJCKFN@?6Size?3?5?$AA@ 0043b2e0     msvcrtd:_error_.obj
 0003:000062ec       ??_C@_0N@MHFFIMFG@?6Address?3?50x?$AA@ 0043b2ec     msvcrtd:_error_.obj
 0003:00006300       ??_C@_0EI@CLEPFNGI@Stack?5area?5around?5_alloca?5memory@ 0043b300     msvcrtd:_error_.obj
 0003:00006358       ??_C@_0BC@HHMKLAND@?$CFs?$CFs?$CFp?$CFs?$CFzd?$CFs?$CFd?$CFs?$AA@ 0043b358     msvcrtd:_error_.obj
 0003:00006370       ??_C@_01EEMJAFIK@?6?$AA@   0043b370     msvcrtd:_error_.obj
 0003:00006374       ??_C@_02LLMPMKNF@?$DO?5?$AA@ 0043b374     msvcrtd:_error_.obj
 0003:00006378       ??_C@_08KJEDNCKC@?$CFs?$CFs?$CFs?$CFs?$AA@ 0043b378     msvcrtd:_error_.obj
 0003:00006384       ??_C@_0DE@OHJBPMBP@A?5variable?5is?5being?5used?5without@ 0043b384     msvcrtd:_error_.obj
 0003:000063c4       ??_C@_1BK@MGMFAEKH@?$AAk?$AAe?$AAr?$AAn?$AAe?$AAl?$AA3?$AA2?$AA?4?$AAd?$AAl?$AAl?$AA?$AA@ 0043b3c4     msvcrtd:thread_safe_statics.obj
 0003:000063e4       ??_C@_0BM@HLJJNPAH@InitializeConditionVariable?$AA@ 0043b3e4     msvcrtd:thread_safe_statics.obj
 0003:00006408       ??_C@_0BJ@JEBJOJFJ@SleepConditionVariableCS?$AA@ 0043b408     msvcrtd:thread_safe_statics.obj
 0003:00006428       ??_C@_0BJ@PGPPEPCC@WakeAllConditionVariable?$AA@ 0043b428     msvcrtd:thread_safe_statics.obj
 0003:00006448       ??_C@_1HK@LKKBAJNK@?$AAf?$AA?3?$AA?2?$AAd?$AAd?$AA?2?$AAv?$AAc?$AAt?$AAo?$AAo?$AAl?$AAs?$AA?2?$AAc?$AAr?$AAt?$AA?2?$AAv?$AAc?$AAs?$AAt?$AAa?$AAr?$AAt?$AAu?$AAp?$AA?2?$AAs?$AAr?$AAc?$AA?2@ 0043b448     msvcrtd:thread_safe_statics.obj
 0003:00006500       ??_C@_0BJ@HEGAHDFO@Stack?5pointer?5corruption?$AA@ 0043b500     msvcrtd:_userapi_.obj
 0003:00006520       ??_C@_0CK@FEGOIOPB@Cast?5to?5smaller?5type?5causing?5los@ 0043b520     msvcrtd:_userapi_.obj
 0003:00006554       ??_C@_0BI@CIGMDCBH@Stack?5memory?5corruption?$AA@ 0043b554     msvcrtd:_userapi_.obj
 0003:00006570       ??_C@_0CK@CNLNOEPB@Local?5variable?5used?5before?5initi@ 0043b570     msvcrtd:_userapi_.obj
 0003:000065a4       ??_C@_0BP@OGBCLIBO@Stack?5around?5_alloca?5corrupted?$AA@ 0043b5a4     msvcrtd:_userapi_.obj
 0003:00006628       ??_C@_1EI@MLPKHBGE@?$AAa?$AAp?$AAi?$AA?9?$AAm?$AAs?$AA?9?$AAw?$AAi?$AAn?$AA?9?$AAc?$AAo?$AAr?$AAe?$AA?9?$AAr?$AAe?$AAg?$AAi?$AAs?$AAt?$AAr?$AAy?$AA?9?$AAl?$AA1?$AA?9?$AA1?$AA?9?$AA0?$AA?4@ 0043b628     msvcrtd:_pdblkup_.obj
 0003:00006680       ??_C@_1BK@JHLNAEJL@?$AAa?$AAd?$AAv?$AAa?$AAp?$AAi?$AA3?$AA2?$AA?4?$AAd?$AAl?$AAl?$AA?$AA@ 0043b680     msvcrtd:_pdblkup_.obj
 0003:000066a0       ??_C@_0O@COHOBMLB@RegOpenKeyExW?$AA@ 0043b6a0     msvcrtd:_pdblkup_.obj
 0003:000066b0       ??_C@_0BB@GLNAEDBD@RegQueryValueExW?$AA@ 0043b6b0     msvcrtd:_pdblkup_.obj
 0003:000066c4       ??_C@_0M@HLOHPNFA@RegCloseKey?$AA@ 0043b6c4     msvcrtd:_pdblkup_.obj
 0003:000066d8       ??_C@_1HE@EBEAGLFB@?$AAS?$AAO?$AAF?$AAT?$AAW?$AAA?$AAR?$AAE?$AA?2?$AAW?$AAo?$AAw?$AA6?$AA4?$AA3?$AA2?$AAN?$AAo?$AAd?$AAe?$AA?2?$AAM?$AAi?$AAc?$AAr?$AAo?$AAs?$AAo?$AAf?$AAt?$AA?2?$AAV@ 0043b6d8     msvcrtd:_pdblkup_.obj
 0003:00006764       ??_C@_1BG@EABPBLLF@?$AAP?$AAr?$AAo?$AAd?$AAu?$AAc?$AAt?$AAD?$AAi?$AAr?$AA?$AA@ 0043b764     msvcrtd:_pdblkup_.obj
 0003:000067a4       ??_C@_1BC@JINFINNJ@?$AAM?$AAS?$AAP?$AAD?$AAB?$AA1?$AA4?$AA0?$AA?$AA@ 0043b7a4     msvcrtd:_pdblkup_.obj
 0003:000067bc       ??_C@_0BB@KCIACLNC@PDBOpenValidate5?$AA@ 0043b7bc     msvcrtd:_pdblkup_.obj
 0003:000067d0       ??_C@_01KDCPPGHE@r?$AA@    0043b7d0     msvcrtd:_pdblkup_.obj
 0003:000067d4       _GUID_ATLVer30             0043b7d4     atls:atlbase.obj
 0003:000067e8       _GUID_ATLVer70             0043b7e8     atls:atlbase.obj
 0003:000067fc       _GUID_ATLVer100            0043b7fc     atls:atlbase.obj
 0003:00006810       _GUID_ATLVer110            0043b810     atls:atlbase.obj
 0003:00006828       ??_C@_1IC@ONKHOIDK@?$AAE?$AAR?$AAR?$AAO?$AAR?$AA?5?$AA?3?$AA?5?$AAU?$AAn?$AAa?$AAb?$AAl?$AAe?$AA?5?$AAt?$AAo?$AA?5?$AAi?$AAn?$AAi?$AAt?$AAi?$AAa?$AAl?$AAi?$AAz?$AAe?$AA?5?$AAc?$AAr?$AAi@ 0043b828     atls:atlbase.obj
 0003:000068c4       ?chDirSep@ATL@@3_WB        0043b8c4     atls:stdafx.obj
 0003:000068c8       ?chRightBracket@ATL@@3_WB  0043b8c8     atls:stdafx.obj
 0003:000068cc       ?chLeftBracket@ATL@@3_WB   0043b8cc     atls:stdafx.obj
 0003:000068d0       ?chQuote@ATL@@3_WB         0043b8d0     atls:stdafx.obj
 0003:000068d4       ?chEquals@ATL@@3_WB        0043b8d4     atls:stdafx.obj
 0003:000068d8       ?szStringVal@ATL@@3QB_WB   0043b8d8     atls:stdafx.obj
 0003:000068dc       ??_C@_13HADIAKP@?$AAS?$AA?$AA@ 0043b8dc     atls:stdafx.obj
 0003:000068e0       ?multiszStringVal@ATL@@3QB_WB 0043b8e0     atls:stdafx.obj
 0003:000068e4       ??_C@_13LHMFKAAD@?$AAM?$AA?$AA@ 0043b8e4     atls:stdafx.obj
 0003:000068e8       ?szDwordVal@ATL@@3QB_WB    0043b8e8     atls:stdafx.obj
 0003:000068ec       ??_C@_13MKMNOPIJ@?$AAD?$AA?$AA@ 0043b8ec     atls:stdafx.obj
 0003:000068f0       ?szBinaryVal@ATL@@3QB_WB   0043b8f0     atls:stdafx.obj
 0003:000068f4       ??_C@_13OPKGLAFF@?$AAB?$AA?$AA@ 0043b8f4     atls:stdafx.obj
 0003:000068f8       ?szValToken@ATL@@3QB_WB    0043b8f8     atls:stdafx.obj
 0003:000068fc       ??_C@_17LLMMEOJD@?$AAV?$AAa?$AAl?$AA?$AA@ 0043b8fc     atls:stdafx.obj
 0003:00006908       ?szForceRemove@ATL@@3QB_WB 0043b908     atls:stdafx.obj
 0003:0000690c       ??_C@_1BI@JFAIJMHL@?$AAF?$AAo?$AAr?$AAc?$AAe?$AAR?$AAe?$AAm?$AAo?$AAv?$AAe?$AA?$AA@ 0043b90c     atls:stdafx.obj
 0003:00006928       ?szNoRemove@ATL@@3QB_WB    0043b928     atls:stdafx.obj
 0003:0000692c       ??_C@_1BC@GCKHIPE@?$AAN?$AAo?$AAR?$AAe?$AAm?$AAo?$AAv?$AAe?$AA?$AA@ 0043b92c     atls:stdafx.obj
 0003:00006944       ?szDelete@ATL@@3QB_WB      0043b944     atls:stdafx.obj
 0003:00006948       ??_C@_1O@JDLOHAN@?$AAD?$AAe?$AAl?$AAe?$AAt?$AAe?$AA?$AA@ 0043b948     atls:stdafx.obj
 0003:00006958       ??_C@_0DH@EMOHNEGB@f?3?2dd?2vctools?2vc7libs?2ship?2atlmf@ 0043b958     mfcs140d:appmodul.obj
 0003:000069d8       __load_config_used         0043b9d8     msvcrtd:loadcfg.obj
 0003:00006d44       __tls_used                 0043bd44     msvcrtd:tlssup.obj
 0003:00006e60       ??_R1A@?0A@EA@CObject@@8   0043be60     ClientSock.obj
 0003:00006e84       ??_R3CObject@@8            0043be84     ClientSock.obj
 0003:00006e98       ??_R2CObject@@8            0043be98     ClientSock.obj
 0003:00006ea0       ??_R4ClientSock@@6B@       0043bea0     ClientSock.obj
 0003:00006eb8       ??_R3ClientSock@@8         0043beb8     ClientSock.obj
 0003:00006ecc       ??_R2ClientSock@@8         0043becc     ClientSock.obj
 0003:00006edc       ??_R1A@?0A@EA@ClientSock@@8 0043bedc     ClientSock.obj
 0003:00006f00       ??_R1A@?0A@EA@CAsyncSocket@@8 0043bf00     ClientSock.obj
 0003:00006f24       ??_R3CAsyncSocket@@8       0043bf24     ClientSock.obj
 0003:00006f38       ??_R2CAsyncSocket@@8       0043bf38     ClientSock.obj
 0003:00006f44       ??_R1A@?0A@EA@CDialog@@8   0043bf44     DB_Check.obj
 0003:00006f68       ??_R3CDialog@@8            0043bf68     DB_Check.obj
 0003:00006f7c       ??_R2CDialog@@8            0043bf7c     DB_Check.obj
 0003:00006f90       ??_R1A@?0A@EA@CWnd@@8      0043bf90     DB_Check.obj
 0003:00006fb4       ??_R3CWnd@@8               0043bfb4     DB_Check.obj
 0003:00006fc8       ??_R2CWnd@@8               0043bfc8     DB_Check.obj
 0003:00006fd8       ??_R1A@?0A@EA@CCmdTarget@@8 0043bfd8     DB_Check.obj
 0003:00006ffc       ??_R3CCmdTarget@@8         0043bffc     DB_Check.obj
 0003:00007010       ??_R2CCmdTarget@@8         0043c010     DB_Check.obj
 0003:0000701c       ??_R4CDB_Check@@6B@        0043c01c     DB_Check.obj
 0003:00007034       ??_R3CDB_Check@@8          0043c034     DB_Check.obj
 0003:00007048       ??_R2CDB_Check@@8          0043c048     DB_Check.obj
 0003:00007068       ??_R1A@?0A@EA@CDB_Check@@8 0043c068     DB_Check.obj
 0003:0000708c       ??_R1A@?0A@EA@CDialogEx@@8 0043c08c     DB_Check.obj
 0003:000070b0       ??_R3CDialogEx@@8          0043c0b0     DB_Check.obj
 0003:000070c4       ??_R2CDialogEx@@8          0043c0c4     DB_Check.obj
 0003:000070e0       ??_R4CIDS@@6B@             0043c0e0     IDS.obj
 0003:000070f8       ??_R3CIDS@@8               0043c0f8     IDS.obj
 0003:0000710c       ??_R2CIDS@@8               0043c10c     IDS.obj
 0003:0000712c       ??_R1A@?0A@EA@CIDS@@8      0043c12c     IDS.obj
 0003:00007150       ??_R4ServerSock@@6B@       0043c150     ServerSock.obj
 0003:00007168       ??_R3ServerSock@@8         0043c168     ServerSock.obj
 0003:0000717c       ??_R2ServerSock@@8         0043c17c     ServerSock.obj
 0003:0000718c       ??_R1A@?0A@EA@ServerSock@@8 0043c18c     ServerSock.obj
 0003:000071b0       ??_R4CWin32Heap@ATL@@6B@   0043c1b0     stdafx.obj
 0003:000071c8       ??_R3CWin32Heap@ATL@@8     0043c1c8     stdafx.obj
 0003:000071dc       ??_R2CWin32Heap@ATL@@8     0043c1dc     stdafx.obj
 0003:000071e8       ??_R1A@?0A@EA@CWin32Heap@ATL@@8 0043c1e8     stdafx.obj
 0003:0000720c       ??_R1A@?0A@EA@IAtlMemMgr@ATL@@8 0043c20c     stdafx.obj
 0003:00007230       ??_R3IAtlMemMgr@ATL@@8     0043c230     stdafx.obj
 0003:00007244       ??_R2IAtlMemMgr@ATL@@8     0043c244     stdafx.obj
 0003:0000724c       ??_R1A@?0A@EA@IAtlStringMgr@ATL@@8 0043c24c     stdafx.obj
 0003:00007270       ??_R3IAtlStringMgr@ATL@@8  0043c270     stdafx.obj
 0003:00007284       ??_R2IAtlStringMgr@ATL@@8  0043c284     stdafx.obj
 0003:0000728c       ??_R4CAtlStringMgr@ATL@@6B@ 0043c28c     stdafx.obj
 0003:000072a4       ??_R3CAtlStringMgr@ATL@@8  0043c2a4     stdafx.obj
 0003:000072b8       ??_R2CAtlStringMgr@ATL@@8  0043c2b8     stdafx.obj
 0003:000072c4       ??_R1A@?0A@EA@CAtlStringMgr@ATL@@8 0043c2c4     stdafx.obj
 0003:000072e8       ??_R4CTestServerApp@@6B@   0043c2e8     TestServer.obj
 0003:00007300       ??_R3CTestServerApp@@8     0043c300     TestServer.obj
 0003:00007314       ??_R2CTestServerApp@@8     0043c314     TestServer.obj
 0003:00007330       ??_R1A@?0A@EA@CTestServerApp@@8 0043c330     TestServer.obj
 0003:00007354       ??_R1A@?0A@EA@CWinApp@@8   0043c354     TestServer.obj
 0003:00007378       ??_R3CWinApp@@8            0043c378     TestServer.obj
 0003:0000738c       ??_R2CWinApp@@8            0043c38c     TestServer.obj
 0003:000073a0       ??_R1A@?0A@EA@CWinThread@@8 0043c3a0     TestServer.obj
 0003:000073c4       ??_R3CWinThread@@8         0043c3c4     TestServer.obj
 0003:000073d8       ??_R2CWinThread@@8         0043c3d8     TestServer.obj
 0003:000073e8       ??_R4CTestServerDlg@@6B@   0043c3e8     TestServerDlg.obj
 0003:00007400       ??_R3CTestServerDlg@@8     0043c400     TestServerDlg.obj
 0003:00007414       ??_R2CTestServerDlg@@8     0043c414     TestServerDlg.obj
 0003:00007434       ??_R1A@?0A@EA@CTestServerDlg@@8 0043c434     TestServerDlg.obj
 0003:00007458       ??_R4CAboutDlg@@6B@        0043c458     TestServerDlg.obj
 0003:00007470       ??_R3CAboutDlg@@8          0043c470     TestServerDlg.obj
 0003:00007484       ??_R2CAboutDlg@@8          0043c484     TestServerDlg.obj
 0003:000074a4       ??_R1A@?0A@EA@CAboutDlg@@8 0043c4a4     TestServerDlg.obj
 0003:000074c8       ??_R4type_info@@6B@        0043c4c8     msvcrtd:std_type_info_static.obj
 0003:000074e0       ??_R3type_info@@8          0043c4e0     msvcrtd:std_type_info_static.obj
 0003:000074f4       ??_R2type_info@@8          0043c4f4     msvcrtd:std_type_info_static.obj
 0003:000074fc       ??_R1A@?0A@EA@type_info@@8 0043c4fc     msvcrtd:std_type_info_static.obj
 0003:000077d8       ___rtc_iaa                 0043c7d8     msvcrtd:_initsect_.obj
 0003:00007a1c       ___rtc_izz                 0043ca1c     msvcrtd:_initsect_.obj
 0003:00007b20       ___rtc_taa                 0043cb20     msvcrtd:_initsect_.obj
 0003:00007d64       ___rtc_tzz                 0043cd64     msvcrtd:_initsect_.obj
 0003:00008888       ___pobjMapEntryFirst       0043d888     stdafx.obj
 0003:0000898c       ___pobjMapEntryLast        0043d98c     stdafx.obj
 0004:00000268       __pIncludeInitManaged      0043e268     stdafx.obj
 0004:0000026c       ?m_nCategory@CTrace@ATL@@1IA 0043e26c     stdafx.obj
 0004:00000270       ?__LINE__Var@?0??AtlWinModuleInit@ATL@@YGJPAU_ATL_WIN_MODULE70@2@@Z@4JA 0043e270     stdafx.obj
 0004:00000274       ?__LINE__Var@?0??InitInstance@CTestServerApp@@UAEHXZ@4JA 0043e274     TestServer.obj
 0004:00000278       ?__LINE__Var@?0??OnInitDialog@CTestServerDlg@@MAEHXZ@4JA 0043e278     TestServerDlg.obj
 0004:0000027c       ?__LINE__Var@?0??OnAccept@CTestServerDlg@@QAEXXZ@4JA 0043e27c     TestServerDlg.obj
 0004:00000280       ?__LINE__Var@?0??OnReceive@CTestServerDlg@@QAEXPAVClientSock@@@Z@4JA 0043e280     TestServerDlg.obj
 0004:00000284       ?__LINE__Var@?0??OnBnClickedSocketCreate@CTestServerDlg@@QAEXXZ@4JA 0043e284     TestServerDlg.obj
 0004:00000288       ?__LINE__Var@?0??OnBnClickedDb@CTestServerDlg@@QAEXXZ@4JA 0043e288     TestServerDlg.obj
 0004:0000028c       ?__LINE__Var@?0??OnBnClickedIds@CTestServerDlg@@QAEXXZ@4JA 0043e28c     TestServerDlg.obj
 0004:00000290       _WinbaseIsolationAwarePrivateT_UnPgpgk 0043e290     mfcs140d:nolib.obj
 0004:00000294       ___security_cookie_complement 0043e294     msvcrtd:gs_cookie.obj
 0004:00000298       ___security_cookie         0043e298     msvcrtd:gs_cookie.obj
 0004:000002a0       ?_RTC_ErrorLevels@@3PAHA   0043e2a0     msvcrtd:_error_.obj
 0004:000002b8       ___scrt_native_dllmain_reason 0043e2b8     msvcrtd:utility.obj
 0004:000002bc       __Init_global_epoch        0043e2bc     msvcrtd:thread_safe_statics.obj
 0004:000002c0       ___isa_enabled             0043e2c0     msvcrtd:_cpu_disp_.obj
 0004:000002c4       ___scrt_default_matherr    0043e2c4     msvcrtd:matherr.obj
 0004:000002c8       ___scrt_ucrt_dll_is_in_use 0043e2c8     msvcrtd:ucrt_stubs.obj
 0004:000003dc       ??_R0?AVCObject@@@8        0043e3dc     ClientSock.obj
 0004:000003f8       ??_R0?AVClientSock@@@8     0043e3f8     ClientSock.obj
 0004:00000418       ??_R0?AVCAsyncSocket@@@8   0043e418     ClientSock.obj
 0004:00000438       ??_R0?AVCDialog@@@8        0043e438     DB_Check.obj
 0004:00000454       ??_R0?AVCWnd@@@8           0043e454     DB_Check.obj
 0004:0000046c       ??_R0?AVCCmdTarget@@@8     0043e46c     DB_Check.obj
 0004:0000048c       ??_R0?AVCDB_Check@@@8      0043e48c     DB_Check.obj
 0004:000004a8       ??_R0?AVCDialogEx@@@8      0043e4a8     DB_Check.obj
 0004:000004c4       ??_R0?AVCIDS@@@8           0043e4c4     IDS.obj
 0004:000004dc       ??_R0?AVServerSock@@@8     0043e4dc     ServerSock.obj
 0004:000004fc       ??_R0?AVCWin32Heap@ATL@@@8 0043e4fc     stdafx.obj
 0004:00000520       ??_R0?AUIAtlMemMgr@ATL@@@8 0043e520     stdafx.obj
 0004:00000544       ??_R0?AUIAtlStringMgr@ATL@@@8 0043e544     stdafx.obj
 0004:0000056c       ??_R0?AVCAtlStringMgr@ATL@@@8 0043e56c     stdafx.obj
 0004:00000594       ??_R0?AVCTestServerApp@@@8 0043e594     TestServer.obj
 0004:000005b8       ??_R0?AVCWinApp@@@8        0043e5b8     TestServer.obj
 0004:000005d4       ??_R0?AVCWinThread@@@8     0043e5d4     TestServer.obj
 0004:000005f4       ??_R0?AVCTestServerDlg@@@8 0043e5f4     TestServerDlg.obj
 0004:00000618       ??_R0?AVCAboutDlg@@@8      0043e618     TestServerDlg.obj
 0004:00000634       ??_R0?AVtype_info@@@8      0043e634     msvcrtd:std_type_info_static.obj
 0004:00000778       ?_OptionsStorage@?1??__local_stdio_printf_options@@9@4_KA 0043e778     DB_Check.obj
 0004:00000784       ?atlTraceException@ATL@@3V?$CTraceCategoryEx@$0CAAA@$0A@@1@A 0043e784     DB_Check.obj
 0004:00000788       ?atlTraceString@ATL@@3V?$CTraceCategoryEx@$0CAAAA@$0A@@1@A 0043e788     DB_Check.obj
 0004:0000078c       ?m_nLastCategory@CTrace@ATL@@1IA 0043e78c     DB_Check.obj
 0004:00000790       ?m_nMap@CTrace@ATL@@1PAUCategoryMap@12@A 0043e790     DB_Check.obj
 0004:00002e90       ___@@_PchSym_@00@UfhvihUrhhrUwvhpglkUtrgsfyUgvhghvieviSrwhTUgvhghvieviUwvyftUhgwzucOlyq@37406149DAE5722D 00440e90     stdafx.obj
 0004:00002ed4       ?_pAtlAutoThreadModule@ATL@@3PAUIAtlAutoThreadModule@1@A 00440ed4     stdafx.obj
 0004:00002ed8       ?_pAtlModule@ATL@@3PAVCAtlModule@1@A 00440ed8     stdafx.obj
 0004:00002edc       ?_pPerfRegFunc@ATL@@3P6AJPAUHINSTANCE__@@@ZA 00440edc     stdafx.obj
 0004:00002ee0       ?_pPerfUnRegFunc@ATL@@3P6AJXZA 00440ee0     stdafx.obj
 0004:00002ee4       ?_AtlRegisterPerUser@ATL@@3_NA 00440ee4     stdafx.obj
 0004:00002ee8       ?_pModule@ATL@@3PAVCComModule@1@A 00440ee8     stdafx.obj
 0004:00002eec       ?atlTraceGeneral@ATL@@3V?$CTraceCategoryEx@$00$0A@@1@A 00440eec     stdafx.obj
 0004:00002ef0       ?atlTraceCOM@ATL@@3V?$CTraceCategoryEx@$01$0A@@1@A 00440ef0     stdafx.obj
 0004:00002ef4       ?atlTraceQI@ATL@@3V?$CTraceCategoryEx@$03$0A@@1@A 00440ef4     stdafx.obj
 0004:00002ef8       ?atlTraceRegistrar@ATL@@3V?$CTraceCategoryEx@$07$0A@@1@A 00440ef8     stdafx.obj
 0004:00002efc       ?atlTraceRefcount@ATL@@3V?$CTraceCategoryEx@$0BA@$0A@@1@A 00440efc     stdafx.obj
 0004:00002f00       ?atlTraceWindowing@ATL@@3V?$CTraceCategoryEx@$0CA@$0A@@1@A 00440f00     stdafx.obj
 0004:00002f04       ?atlTraceControls@ATL@@3V?$CTraceCategoryEx@$0EA@$0A@@1@A 00440f04     stdafx.obj
 0004:00002f08       ?atlTraceHosting@ATL@@3V?$CTraceCategoryEx@$0IA@$0A@@1@A 00440f08     stdafx.obj
 0004:00002f0c       ?atlTraceDBClient@ATL@@3V?$CTraceCategoryEx@$0BAA@$0A@@1@A 00440f0c     stdafx.obj
 0004:00002f10       ?atlTraceDBProvider@ATL@@3V?$CTraceCategoryEx@$0CAA@$0A@@1@A 00440f10     stdafx.obj
 0004:00002f14       ?atlTraceSnapin@ATL@@3V?$CTraceCategoryEx@$0EAA@$0A@@1@A 00440f14     stdafx.obj
 0004:00002f18       ?atlTraceNotImpl@ATL@@3V?$CTraceCategoryEx@$0IAA@$0A@@1@A 00440f18     stdafx.obj
 0004:00002f1c       ?atlTraceAllocation@ATL@@3V?$CTraceCategoryEx@$0BAAA@$0A@@1@A 00440f1c     stdafx.obj
 0004:00002f20       ?atlTraceTime@ATL@@3V?$CTraceCategoryEx@$0EAAA@$0A@@1@A 00440f20     stdafx.obj
 0004:00002f24       ?atlTraceCache@ATL@@3V?$CTraceCategoryEx@$0IAAA@$0A@@1@A 00440f24     stdafx.obj
 0004:00002f28       ?atlTraceStencil@ATL@@3V?$CTraceCategoryEx@$0BAAAA@$0A@@1@A 00440f28     stdafx.obj
 0004:00002f2c       ?atlTraceMap@ATL@@3V?$CTraceCategoryEx@$0EAAAA@$0A@@1@A 00440f2c     stdafx.obj
 0004:00002f30       ?atlTraceUtil@ATL@@3V?$CTraceCategoryEx@$0IAAAA@$0A@@1@A 00440f30     stdafx.obj
 0004:00002f34       ?atlTraceSecurity@ATL@@3V?$CTraceCategoryEx@$0BAAAAA@$0A@@1@A 00440f34     stdafx.obj
 0004:00002f38       ?atlTraceSync@ATL@@3V?$CTraceCategoryEx@$0CAAAAA@$0A@@1@A 00440f38     stdafx.obj
 0004:00002f3c       ?atlTraceISAPI@ATL@@3V?$CTraceCategoryEx@$0EAAAAA@$0A@@1@A 00440f3c     stdafx.obj
 0004:00002f40       ?m_nLevel@CTrace@ATL@@1IA  00440f40     stdafx.obj
 0004:00002f44       ?m_bInitFailed@CAtlBaseModule@ATL@@2_NA 00440f44     stdafx.obj
 0004:00002f48       ?_AtlComModule@ATL@@3VCAtlComModule@1@A 00440f48     stdafx.obj
 0004:00002f78       ?_AtlWinModule@ATL@@3VCAtlWinModule@1@A 00440f78     stdafx.obj
 0004:00002fac       ?isInitialized@CAtlStringMgr@ATL@@0_NA 00440fac     stdafx.obj
 0004:00002fb0       ?strHeap@?1??GetInstance@CAtlStringMgr@ATL@@SAPAUIAtlStringMgr@3@XZ@4VCWin32Heap@3@A 00440fb0     stdafx.obj
 0004:00002fc0       ?$TSS0@?1??GetInstance@CAtlStringMgr@ATL@@SAPAUIAtlStringMgr@3@XZ@4HA 00440fc0     stdafx.obj
 0004:00002fc4       ?strMgr@?1??GetInstance@CAtlStringMgr@ATL@@SAPAUIAtlStringMgr@3@XZ@4V23@A 00440fc4     stdafx.obj
 0004:00002fe8       ?$TSS1@?1??GetInstance@CAtlStringMgr@ATL@@SAPAUIAtlStringMgr@3@XZ@4HA 00440fe8     stdafx.obj
 0004:00002fec       ?isCImageStaticInitialized@CImage@ATL@@0_NA 00440fec     stdafx.obj
 0004:00002ff0       ?gdiPlus@?1??GetInitGDIPlusInstance@CImage@ATL@@CAPAVCInitGDIPlus@23@XZ@4V423@A 00440ff0     stdafx.obj
 0004:0000301c       ?$TSS0@?1??GetInitGDIPlusInstance@CImage@ATL@@CAPAVCInitGDIPlus@23@XZ@4HA 0044101c     stdafx.obj
 0004:00003020       ?cache@?1??GetCDCCacheInstance@CImage@ATL@@CAPAVCDCCache@23@XZ@4V423@A 00441020     stdafx.obj
 0004:00003034       ?$TSS0@?1??GetCDCCacheInstance@CImage@ATL@@CAPAVCDCCache@23@XZ@4HA 00441034     stdafx.obj
 0004:00003038       ?theApp@@3VCTestServerApp@@A 00441038     TestServer.obj
 0004:0000312c       _IsolationAwarePrivateT_SqbjaYRiRY 0044112c     mfcs140d:nolib.obj
 0004:00003130       _WinbaseIsolationAwarePrivateT_SpeRNgRQnPgpgk 00441130     mfcs140d:nolib.obj
 0004:00003134       _WinbaseIsolationAwarePrivateT_SpYRNahcpNYYRQ 00441134     mfcs140d:nolib.obj
 0004:00003138       __afxForceEXCLUDE          00441138     mfcs140d:nolib.obj
 0004:0000313c       ?s_pfn@?1??IsolationAwareCreateActCtxW@@9@4@4P6GPAXPBUtagACTCTXW@@@ZA 0044113c     mfcs140d:nolib.obj
 0004:00003140       ?s_pfn@?1??IsolationAwareActivateActCtx@@9@8@4P6GHPAXPAK@ZA 00441140     mfcs140d:nolib.obj
 0004:00003144       ?s_pfn@?1??IsolationAwareDeactivateActCtx@@9@8@4P6GHKK@ZA 00441144     mfcs140d:nolib.obj
 0004:00003148       ?s_pfn@?1??IsolationAwareFindActCtxSectionStringW@@9@20@4P6GHKPBU_GUID@@KPB_WPAUtagACTCTX_SECTION_KEYED_DATA@@@ZA 00441148     mfcs140d:nolib.obj
 0004:0000314c       ?s_pfn@?1??IsolationAwareQueryActCtxW@@9@28@4P6GHKPAX0K0KPAK@ZA 0044114c     mfcs140d:nolib.obj
 0004:00003150       ?m@?1??WinbaseIsolationAwarePrivatetRgCebPnQQeRff_xReaRYQP_QYY@@9@4@4UIsolationAwarePrivate_zHGnoyr_zBqHyr_vAsB@@A 00441150     mfcs140d:nolib.obj
 0004:00003154       __afxForceSTDAFX           00441154     mfcs140d:stdafx.obj
 0004:0000315c       ___scrt_current_native_startup_state 0044115c     msvcrtd:utility.obj
 0004:00003160       ___scrt_native_startup_lock 00441160     msvcrtd:utility.obj
 0004:000031b4       __tls_index                004411b4     msvcrtd:tlssup.obj
 0004:00003588       ___isa_available           00441588     msvcrtd:_cpu_disp_.obj
 0004:0000358c       ___favor                   0044158c     msvcrtd:_cpu_disp_.obj
 0004:00003594       ___scrt_debugger_hook_flag 00441594     msvcrtd:utility_desktop.obj
 0004:00003598       ?__type_info_root_node@@3U__type_info_node@@A 00441598     msvcrtd:tncleanup.obj
 0004:000035a8       ?_OptionsStorage@?1??__local_stdio_scanf_options@@9@4_KA 004415a8     msvcrtd:default_local_stdio_options.obj
 0004:000035b4       ?_AtlBaseModule@ATL@@3VCAtlBaseModule@1@A 004415b4     atls:atlbase.obj
 0004:000035f8       ___@@_PchSym_@00@UwwUexgllohUexHoryhUhsrkUzgonuxUhixUzgoUzgohUlyqBiUrDIGUhgwzucOlyq@D30CF1FEFB9F8AE1 004415f8     atls:stdafx.obj
 0004:000035fc       ?_afxInitAppState@@3DA     004415fc     mfcs140d:appmodul.obj
 0004:00003600       ___dyn_tls_dtor_callback   00441600     <common>
 0004:0000360c       ___dyn_tls_init_callback   0044160c     <common>
 0005:00000000       __imp__InitCommonControlsEx@4 00442000     comctl32:COMCTL32.dll
 0005:00000004       \177COMCTL32_NULL_THUNK_DATA 00442004     comctl32:COMCTL32.dll
 0005:00000030       __imp__DeleteDC@4          00442030     gdi32:GDI32.dll
 0005:00000034       \177GDI32_NULL_THUNK_DATA  00442034     gdi32:GDI32.dll
 0005:00000060       __imp__SetLastError@4      00442060     kernel32:KERNEL32.dll
 0005:00000064       __imp__HeapDestroy@4       00442064     kernel32:KERNEL32.dll
 0005:00000068       __imp__HeapAlloc@12        00442068     kernel32:KERNEL32.dll
 0005:0000006c       __imp__HeapReAlloc@16      0044206c     kernel32:KERNEL32.dll
 0005:00000070       __imp__HeapFree@12         00442070     kernel32:KERNEL32.dll
 0005:00000074       __imp__HeapSize@12         00442074     kernel32:KERNEL32.dll
 0005:00000078       __imp__GetProcessHeap@0    00442078     kernel32:KERNEL32.dll
 0005:0000007c       __imp__EnterCriticalSection@4 0044207c     kernel32:KERNEL32.dll
 0005:00000080       __imp__LeaveCriticalSection@4 00442080     kernel32:KERNEL32.dll
 0005:00000084       __imp__InitializeCriticalSectionEx@12 00442084     kernel32:KERNEL32.dll
 0005:00000088       __imp__DeleteCriticalSection@4 00442088     kernel32:KERNEL32.dll
 0005:0000008c       __imp__GetLastError@0      0044208c     kernel32:KERNEL32.dll
 0005:00000090       __imp__OutputDebugStringA@4 00442090     kernel32:KERNEL32.dll
 0005:00000094       __imp__InitializeCriticalSectionAndSpinCount@8 00442094     kernel32:KERNEL32.dll
 0005:00000098       __imp__GetModuleFileNameW@12 00442098     kernel32:KERNEL32.dll
 0005:0000009c       __imp__OutputDebugStringW@4 0044209c     kernel32:KERNEL32.dll
 0005:000000a0       __imp__GetModuleHandleA@4  004420a0     kernel32:KERNEL32.dll
 0005:000000a4       __imp__GetModuleHandleW@4  004420a4     kernel32:KERNEL32.dll
 0005:000000a8       __imp__GetProcAddress@8    004420a8     kernel32:KERNEL32.dll
 0005:000000ac       __imp__LoadLibraryW@4      004420ac     kernel32:KERNEL32.dll
 0005:000000b0       __imp__IsDebuggerPresent@0 004420b0     kernel32:KERNEL32.dll
 0005:000000b4       __imp__WideCharToMultiByte@32 004420b4     kernel32:KERNEL32.dll
 0005:000000b8       __imp__CloseHandle@4       004420b8     kernel32:KERNEL32.dll
 0005:000000bc       __imp__SetEvent@4          004420bc     kernel32:KERNEL32.dll
 0005:000000c0       __imp__RaiseException@16   004420c0     kernel32:KERNEL32.dll
 0005:000000c4       __imp__DecodePointer@4     004420c4     kernel32:KERNEL32.dll
 0005:000000c8       __imp__MultiByteToWideChar@24 004420c8     kernel32:KERNEL32.dll
 0005:000000cc       __imp__GetCurrentThreadId@0 004420cc     kernel32:KERNEL32.dll
 0005:000000d0       __imp__ResetEvent@4        004420d0     kernel32:KERNEL32.dll
 0005:000000d4       __imp__WaitForSingleObjectEx@12 004420d4     kernel32:KERNEL32.dll
 0005:000000d8       __imp__CreateEventW@16     004420d8     kernel32:KERNEL32.dll
 0005:000000dc       __imp__UnhandledExceptionFilter@4 004420dc     kernel32:KERNEL32.dll
 0005:000000e0       __imp__SetUnhandledExceptionFilter@4 004420e0     kernel32:KERNEL32.dll
 0005:000000e4       __imp__InitializeSListHead@4 004420e4     kernel32:KERNEL32.dll
 0005:000000e8       __imp__GetSystemTimeAsFileTime@4 004420e8     kernel32:KERNEL32.dll
 0005:000000ec       __imp__WaitForSingleObject@8 004420ec     kernel32:KERNEL32.dll
 0005:000000f0       __imp__GetCurrentProcessId@0 004420f0     kernel32:KERNEL32.dll
 0005:000000f4       __imp__QueryPerformanceCounter@4 004420f4     kernel32:KERNEL32.dll
 0005:000000f8       __imp__GetStartupInfoW@4   004420f8     kernel32:KERNEL32.dll
 0005:000000fc       __imp__FreeLibrary@4       004420fc     kernel32:KERNEL32.dll
 0005:00000100       __imp__VirtualQuery@12     00442100     kernel32:KERNEL32.dll
 0005:00000104       __imp__IsProcessorFeaturePresent@4 00442104     kernel32:KERNEL32.dll
 0005:00000108       __imp__TerminateProcess@8  00442108     kernel32:KERNEL32.dll
 0005:0000010c       __imp__GetCurrentProcess@0 0044210c     kernel32:KERNEL32.dll
 0005:00000110       \177KERNEL32_NULL_THUNK_DATA 00442110     kernel32:KERNEL32.dll
 0005:0000015c       __imp__SysFreeString@4     0044215c     oleaut32:OLEAUT32.dll
 0005:00000160       \177OLEAUT32_NULL_THUNK_DATA 00442160     oleaut32:OLEAUT32.dll
 0005:0000018c       __imp__GetSystemMetrics@4  0044218c     user32:USER32.dll
 0005:00000190       __imp__PostQuitMessage@4   00442190     user32:USER32.dll
 0005:00000194       __imp__PeekMessageA@20     00442194     user32:USER32.dll
 0005:00000198       __imp__UnregisterClassA@8  00442198     user32:USER32.dll
 0005:0000019c       \177USER32_NULL_THUNK_DATA 0044219c     user32:USER32.dll
 0005:000001c8       __imp___except_handler4_common 004421c8     vcruntimed:VCRUNTIME140D.dll
 0005:000001cc       __imp____telemetry_main_return_trigger 004421cc     vcruntimed:VCRUNTIME140D.dll
 0005:000001d0       __imp____telemetry_main_invoke_trigger 004421d0     vcruntimed:VCRUNTIME140D.dll
 0005:000001d4       __imp____vcrt_InitializeCriticalSectionEx 004421d4     vcruntimed:VCRUNTIME140D.dll
 0005:000001d8       __imp____CxxFrameHandler3  004421d8     vcruntimed:VCRUNTIME140D.dll
 0005:000001dc       __imp__memset              004421dc     vcruntimed:VCRUNTIME140D.dll
 0005:000001e0       __imp__memmove             004421e0     vcruntimed:VCRUNTIME140D.dll
 0005:000001e4       __imp____std_type_info_destroy_list 004421e4     vcruntimed:VCRUNTIME140D.dll
 0005:000001e8       __imp____vcrt_LoadLibraryExW 004421e8     vcruntimed:VCRUNTIME140D.dll
 0005:000001ec       __imp____vcrt_GetModuleHandleW 004421ec     vcruntimed:VCRUNTIME140D.dll
 0005:000001f0       __imp____vcrt_GetModuleFileNameW 004421f0     vcruntimed:VCRUNTIME140D.dll
 0005:000001f4       \177VCRUNTIME140D_NULL_THUNK_DATA 004421f4     vcruntimed:VCRUNTIME140D.dll
 0005:00000228       __imp__WSAStartup@8        00442228     ws2_32:WS2_32.dll
 0005:0000022c       __imp__ntohs@4             0044222c     ws2_32:WS2_32.dll
 0005:00000230       __imp__inet_ntoa@4         00442230     ws2_32:WS2_32.dll
 0005:00000234       \177WS2_32_NULL_THUNK_DATA 00442234     ws2_32:WS2_32.dll
 0005:00000260       __imp__GdiplusShutdown@4   00442260     gdiplus:gdiplus.dll
 0005:00000264       \177gdiplus_NULL_THUNK_DATA 00442264     gdiplus:gdiplus.dll
 0005:00000290       __imp__mysql_fetch_row@4   00442290     libmysql:libmysql.dll
 0005:00000294       __imp__mysql_free_result@4 00442294     libmysql:libmysql.dll
 0005:00000298       __imp__mysql_store_result@4 00442298     libmysql:libmysql.dll
 0005:0000029c       __imp__mysql_query@8       0044229c     libmysql:libmysql.dll
 0005:000002a0       __imp__mysql_real_connect@32 004422a0     libmysql:libmysql.dll
 0005:000002a4       __imp__mysql_close@4       004422a4     libmysql:libmysql.dll
 0005:000002a8       __imp__mysql_init@4        004422a8     libmysql:libmysql.dll
 0005:000002ac       \177libmysql_NULL_THUNK_DATA 004422ac     libmysql:libmysql.dll
 0005:000002dc       __imp_?get_accChildCount@CWnd@@UAEJPAJ@Z 004422dc     mfc140d:mfc140d.dll
 0005:000002e0       __imp_?get_accChild@CWnd@@UAEJUtagVARIANT@@PAPAUIDispatch@@@Z 004422e0     mfc140d:mfc140d.dll
 0005:000002e4       __imp_?get_accName@CWnd@@UAEJUtagVARIANT@@PAPA_W@Z 004422e4     mfc140d:mfc140d.dll
 0005:000002e8       __imp_?get_accValue@CWnd@@UAEJUtagVARIANT@@PAPA_W@Z 004422e8     mfc140d:mfc140d.dll
 0005:000002ec       __imp_?get_accDescription@CWnd@@UAEJUtagVARIANT@@PAPA_W@Z 004422ec     mfc140d:mfc140d.dll
 0005:000002f0       __imp_?get_accRole@CWnd@@UAEJUtagVARIANT@@PAU2@@Z 004422f0     mfc140d:mfc140d.dll
 0005:000002f4       __imp_?get_accState@CWnd@@UAEJUtagVARIANT@@PAU2@@Z 004422f4     mfc140d:mfc140d.dll
 0005:000002f8       __imp_?get_accHelp@CWnd@@UAEJUtagVARIANT@@PAPA_W@Z 004422f8     mfc140d:mfc140d.dll
 0005:000002fc       __imp_?get_accHelpTopic@CWnd@@UAEJPAPA_WUtagVARIANT@@PAJ@Z 004422fc     mfc140d:mfc140d.dll
 0005:00000300       __imp_?get_accKeyboardShortcut@CWnd@@UAEJUtagVARIANT@@PAPA_W@Z 00442300     mfc140d:mfc140d.dll
 0005:00000304       __imp_?get_accFocus@CWnd@@UAEJPAUtagVARIANT@@@Z 00442304     mfc140d:mfc140d.dll
 0005:00000308       __imp_?get_accSelection@CWnd@@UAEJPAUtagVARIANT@@@Z 00442308     mfc140d:mfc140d.dll
 0005:0000030c       __imp_?get_accDefaultAction@CWnd@@UAEJUtagVARIANT@@PAPA_W@Z 0044230c     mfc140d:mfc140d.dll
 0005:00000310       __imp_?accSelect@CWnd@@UAEJJUtagVARIANT@@@Z 00442310     mfc140d:mfc140d.dll
 0005:00000314       __imp_?accLocation@CWnd@@UAEJPAJ000UtagVARIANT@@@Z 00442314     mfc140d:mfc140d.dll
 0005:00000318       __imp_?accNavigate@CWnd@@UAEJJUtagVARIANT@@PAU2@@Z 00442318     mfc140d:mfc140d.dll
 0005:0000031c       __imp_?accHitTest@CWnd@@UAEJJJPAUtagVARIANT@@@Z 0044231c     mfc140d:mfc140d.dll
 0005:00000320       __imp_?accDoDefaultAction@CWnd@@UAEJUtagVARIANT@@@Z 00442320     mfc140d:mfc140d.dll
 0005:00000324       __imp_?put_accName@CWnd@@UAEJUtagVARIANT@@PA_W@Z 00442324     mfc140d:mfc140d.dll
 0005:00000328       __imp_?put_accValue@CWnd@@UAEJUtagVARIANT@@PA_W@Z 00442328     mfc140d:mfc140d.dll
 0005:0000032c       __imp_?SetProxy@CWnd@@UAEJPAUIAccessibleProxy@@@Z 0044232c     mfc140d:mfc140d.dll
 0005:00000330       __imp_?CreateAccessibleProxy@CWnd@@UAEJIJPAJ@Z 00442330     mfc140d:mfc140d.dll
 0005:00000334       __imp_?OnNotify@CWnd@@MAEHIJPAJ@Z 00442334     mfc140d:mfc140d.dll
 0005:00000338       __imp_?GetSuperWndProcAddr@CWnd@@MAEPAP6GJPAUHWND__@@IIJ@ZXZ 00442338     mfc140d:mfc140d.dll
 0005:0000033c       __imp_?DoDataExchange@CWnd@@MAEXPAVCDataExchange@@@Z 0044233c     mfc140d:mfc140d.dll
 0005:00000340       __imp_?BeginModalState@CWnd@@UAEXXZ 00442340     mfc140d:mfc140d.dll
 0005:00000344       __imp_?EndModalState@CWnd@@UAEXXZ 00442344     mfc140d:mfc140d.dll
 0005:00000348       __imp_?OnAmbientProperty@CWnd@@UAEHPAVCOleControlSite@@JPAUtagVARIANT@@@Z 00442348     mfc140d:mfc140d.dll
 0005:0000034c       __imp_?WindowProc@CWnd@@MAEJIIJ@Z 0044234c     mfc140d:mfc140d.dll
 0005:00000350       __imp_?OnWndMsg@CWnd@@MAEHIIJPAJ@Z 00442350     mfc140d:mfc140d.dll
 0005:00000354       __imp_?DefWindowProcA@CWnd@@MAEJIIJ@Z 00442354     mfc140d:mfc140d.dll
 0005:00000358       __imp_?PostNcDestroy@CWnd@@MAEXXZ 00442358     mfc140d:mfc140d.dll
 0005:0000035c       __imp_?OnChildNotify@CWnd@@MAEHIIJPAJ@Z 0044235c     mfc140d:mfc140d.dll
 0005:00000360       __imp_?OnTouchInputs@CWnd@@MAEHIPAUtagTOUCHINPUT@@@Z 00442360     mfc140d:mfc140d.dll
 0005:00000364       __imp_?OnTouchInput@CWnd@@MAEHVCPoint@@HHPAUtagTOUCHINPUT@@@Z 00442364     mfc140d:mfc140d.dll
 0005:00000368       __imp_?GetGestureStatus@CWnd@@MAEKVCPoint@@@Z 00442368     mfc140d:mfc140d.dll
 0005:0000036c       __imp_?OnGestureZoom@CWnd@@MAEHVCPoint@@J@Z 0044236c     mfc140d:mfc140d.dll
 0005:00000370       __imp_?OnGesturePan@CWnd@@MAEHVCPoint@@0@Z 00442370     mfc140d:mfc140d.dll
 0005:00000374       __imp_?OnGestureRotate@CWnd@@MAEHVCPoint@@N@Z 00442374     mfc140d:mfc140d.dll
 0005:00000378       __imp_?OnGestureTwoFingerTap@CWnd@@MAEHVCPoint@@@Z 00442378     mfc140d:mfc140d.dll
 0005:0000037c       __imp_?OnGesturePressAndTap@CWnd@@MAEHVCPoint@@J@Z 0044237c     mfc140d:mfc140d.dll
 0005:00000380       __imp_?ResizeDynamicLayout@CWnd@@MAEXXZ 00442380     mfc140d:mfc140d.dll
 0005:00000384       __imp_?IsFrameWnd@CWnd@@UBEHXZ 00442384     mfc140d:mfc140d.dll
 0005:00000388       __imp_?OnFinalRelease@CWnd@@UAEXXZ 00442388     mfc140d:mfc140d.dll
 0005:0000038c       __imp_?CreateControlContainer@CWnd@@MAEHPAPAVCOleControlContainer@@@Z 0044238c     mfc140d:mfc140d.dll
 0005:00000390       __imp_?CreateControlSite@CWnd@@MAEHPAVCOleControlContainer@@PAPAVCOleControlSite@@IABU_GUID@@@Z 00442390     mfc140d:mfc140d.dll
 0005:00000394       __imp_?Create@CDialog@@UAEHPBDPAVCWnd@@@Z 00442394     mfc140d:mfc140d.dll
 0005:00000398       __imp_?Create@CDialog@@UAEHIPAVCWnd@@@Z 00442398     mfc140d:mfc140d.dll
 0005:0000039c       __imp_?CreateIndirect@CDialog@@UAEHPBUDLGTEMPLATE@@PAVCWnd@@PAX@Z 0044239c     mfc140d:mfc140d.dll
 0005:000003a0       __imp_?CreateIndirect@CDialog@@UAEHPAXPAVCWnd@@@Z 004423a0     mfc140d:mfc140d.dll
 0005:000003a4       __imp_?DoModal@CDialog@@UAEHXZ 004423a4     mfc140d:mfc140d.dll
 0005:000003a8       __imp_?OnInitDialog@CDialog@@UAEHXZ 004423a8     mfc140d:mfc140d.dll
 0005:000003ac       __imp_?OnSetFont@CDialog@@UAEXPAVCFont@@@Z 004423ac     mfc140d:mfc140d.dll
 0005:000003b0       __imp_?OnOK@CDialog@@MAEXXZ 004423b0     mfc140d:mfc140d.dll
 0005:000003b4       __imp_?OnCancel@CDialog@@MAEXXZ 004423b4     mfc140d:mfc140d.dll
 0005:000003b8       __imp_??1CDialog@@UAE@XZ   004423b8     mfc140d:mfc140d.dll
 0005:000003bc       __imp_?AssertValid@CDialog@@UBEXXZ 004423bc     mfc140d:mfc140d.dll
 0005:000003c0       __imp_?Dump@CDialog@@UBEXAAVCDumpContext@@@Z 004423c0     mfc140d:mfc140d.dll
 0005:000003c4       __imp_?OnCmdMsg@CDialog@@UAEHIHPAXPAUAFX_CMDHANDLERINFO@@@Z 004423c4     mfc140d:mfc140d.dll
 0005:000003c8       __imp_?CheckAutoCenter@CDialog@@UAEHXZ 004423c8     mfc140d:mfc140d.dll
 0005:000003cc       __imp_?SetOccDialogInfo@CDialog@@MAEHPAU_AFX_OCC_DIALOG_INFO@@@Z 004423cc     mfc140d:mfc140d.dll
 0005:000003d0       __imp_?GetOccDialogInfo@CDialog@@MAEPAU_AFX_OCC_DIALOG_INFO@@XZ 004423d0     mfc140d:mfc140d.dll
 0005:000003d4       __imp_?PreInitDialog@CDialog@@MAEXXZ 004423d4     mfc140d:mfc140d.dll
 0005:000003d8       __imp_??0CComboBox@@QAE@XZ 004423d8     mfc140d:mfc140d.dll
 0005:000003dc       __imp_?GetCurSel@CComboBox@@QBEHXZ 004423dc     mfc140d:mfc140d.dll
 0005:000003e0       __imp_?SetCurSel@CComboBox@@QAEHH@Z 004423e0     mfc140d:mfc140d.dll
 0005:000003e4       __imp_?GetLBText@CComboBox@@QBEHHPAD@Z 004423e4     mfc140d:mfc140d.dll
 0005:000003e8       __imp_?GetLBTextLen@CComboBox@@QBEHH@Z 004423e8     mfc140d:mfc140d.dll
 0005:000003ec       __imp_?AddString@CComboBox@@QAEHPBD@Z 004423ec     mfc140d:mfc140d.dll
 0005:000003f0       __imp_??1CComboBox@@UAE@XZ 004423f0     mfc140d:mfc140d.dll
 0005:000003f4       __imp_?ResumeThread@CWinThread@@QAEKXZ 004423f4     mfc140d:mfc140d.dll
 0005:000003f8       __imp_?AfxBeginThread@@YGPAVCWinThread@@P6AIPAX@Z0HIKPAU_SECURITY_ATTRIBUTES@@@Z 004423f8     mfc140d:mfc140d.dll
 0005:000003fc       __imp_?AfxMessageBox@@YGHPBDII@Z 004423fc     mfc140d:mfc140d.dll
 0005:00000400       __imp_??0CListCtrl@@QAE@XZ 00442400     mfc140d:mfc140d.dll
 0005:00000404       __imp_?SetItem@CListCtrl@@QAEHHHIPBDHIIJ@Z 00442404     mfc140d:mfc140d.dll
 0005:00000408       __imp_?InsertItem@CListCtrl@@QAEHHPBD@Z 00442408     mfc140d:mfc140d.dll
 0005:0000040c       __imp_?DeleteAllItems@CListCtrl@@QAEHXZ 0044240c     mfc140d:mfc140d.dll
 0005:00000410       __imp_?InsertColumn@CListCtrl@@QAEHHPBDHHH@Z 00442410     mfc140d:mfc140d.dll
 0005:00000414       __imp_??1CListCtrl@@UAE@XZ 00442414     mfc140d:mfc140d.dll
 0005:00000418       __imp_??1CDialogImpl@@MAE@XZ 00442418     mfc140d:mfc140d.dll
 0005:0000041c       __imp_?GetThisClass@CDialogEx@@SGPAUCRuntimeClass@@XZ 0044241c     mfc140d:mfc140d.dll
 0005:00000420       __imp_??0CDialogEx@@QAE@IPAVCWnd@@@Z 00442420     mfc140d:mfc140d.dll
 0005:00000424       __imp_?PreTranslateMessage@CDialogEx@@UAEHPAUtagMSG@@@Z 00442424     mfc140d:mfc140d.dll
 0005:00000428       __imp_?OnCommand@CDialogEx@@MAEHIJ@Z 00442428     mfc140d:mfc140d.dll
 0005:0000042c       __imp_??Y?$CStringT@DV?$StrTraitMFC_DLL@DV?$ChTraitsCRT@D@ATL@@@@@ATL@@QAEAAV01@PBD@Z 0044242c     mfc140d:mfc140d.dll
 0005:00000430       __imp_?Format@?$CStringT@DV?$StrTraitMFC_DLL@DV?$ChTraitsCRT@D@ATL@@@@@ATL@@QAAXPBDZZ 00442430     mfc140d:mfc140d.dll
 0005:00000434       __imp_?GetDlgItem@CWnd@@QBEPAV1@H@Z 00442434     mfc140d:mfc140d.dll
 0005:00000438       __imp_?GetWindowTextLengthA@CWnd@@QBEHXZ 00442438     mfc140d:mfc140d.dll
 0005:0000043c       __imp_?EnableWindow@CWnd@@QAEHH@Z 0044243c     mfc140d:mfc140d.dll
 0005:00000440       __imp_??0CListBox@@QAE@XZ  00442440     mfc140d:mfc140d.dll
 0005:00000444       __imp_?get_accParent@CWnd@@UAEJPAPAUIDispatch@@@Z 00442444     mfc140d:mfc140d.dll
 0005:00000448       __imp_?InsertString@CListBox@@QAEHHPBD@Z 00442448     mfc140d:mfc140d.dll
 0005:0000044c       __imp_??1CListBox@@UAE@XZ  0044244c     mfc140d:mfc140d.dll
 0005:00000450       __imp_??0CEdit@@QAE@XZ     00442450     mfc140d:mfc140d.dll
 0005:00000454       __imp_?SetLimitText@CEdit@@QAEXI@Z 00442454     mfc140d:mfc140d.dll
 0005:00000458       __imp_?ReplaceSel@CEdit@@QAEXPBDH@Z 00442458     mfc140d:mfc140d.dll
 0005:0000045c       __imp_?SetSel@CEdit@@QAEXHHH@Z 0044245c     mfc140d:mfc140d.dll
 0005:00000460       __imp_?Clear@CEdit@@QAEXXZ 00442460     mfc140d:mfc140d.dll
 0005:00000464       __imp_??1CEdit@@UAE@XZ     00442464     mfc140d:mfc140d.dll
 0005:00000468       __imp_?GetItemText@CListCtrl@@QBE?AV?$CStringT@DV?$StrTraitMFC_DLL@DV?$ChTraitsCRT@D@ATL@@@@@ATL@@HH@Z 00442468     mfc140d:mfc140d.dll
 0005:0000046c       __imp_?OnHelp@CWinApp@@IAEXXZ 0044246c     mfc140d:mfc140d.dll
 0005:00000470       __imp_?GetThisMessageMap@CWinApp@@KGPBUAFX_MSGMAP@@XZ 00442470     mfc140d:mfc140d.dll
 0005:00000474       __imp_??2CObject@@SGPAXIPBDH@Z 00442474     mfc140d:mfc140d.dll
 0005:00000478       __imp_??3CObject@@SGXPAXPBDH@Z 00442478     mfc140d:mfc140d.dll
 0005:0000047c       __imp_?OnCmdMsg@CCmdTarget@@UAEHIHPAXPAUAFX_CMDHANDLERINFO@@@Z 0044247c     mfc140d:mfc140d.dll
 0005:00000480       __imp_?OnFinalRelease@CCmdTarget@@UAEXXZ 00442480     mfc140d:mfc140d.dll
 0005:00000484       __imp_?GetInterfaceMap@CCmdTarget@@MBEPBUAFX_INTERFACEMAP@@XZ 00442484     mfc140d:mfc140d.dll
 0005:00000488       __imp_?PreTranslateMessage@CWinThread@@UAEHPAUtagMSG@@@Z 00442488     mfc140d:mfc140d.dll
 0005:0000048c       __imp_?PumpMessage@CWinThread@@UAEHXZ 0044248c     mfc140d:mfc140d.dll
 0005:00000490       __imp_?IsIdleMessage@CWinThread@@UAEHPAUtagMSG@@@Z 00442490     mfc140d:mfc140d.dll
 0005:00000494       __imp_?ProcessMessageFilter@CWinThread@@UAEHHPAUtagMSG@@@Z 00442494     mfc140d:mfc140d.dll
 0005:00000498       __imp_?GetMainWnd@CWinThread@@UAEPAVCWnd@@XZ 00442498     mfc140d:mfc140d.dll
 0005:0000049c       __imp_?Delete@CWinThread@@UAEXXZ 0044249c     mfc140d:mfc140d.dll
 0005:000004a0       __imp_?GetRuntimeClass@CWinApp@@UBEPAUCRuntimeClass@@XZ 004424a0     mfc140d:mfc140d.dll
 0005:000004a4       __imp_??0CWinApp@@QAE@PBD@Z 004424a4     mfc140d:mfc140d.dll
 0005:000004a8       __imp_?SetRegistryKey@CWinApp@@IAEXPBD@Z 004424a8     mfc140d:mfc140d.dll
 0005:000004ac       __imp_?GetProfileIntA@CWinApp@@UAEIPBD0H@Z 004424ac     mfc140d:mfc140d.dll
 0005:000004b0       __imp_?WriteProfileInt@CWinApp@@UAEHPBD0H@Z 004424b0     mfc140d:mfc140d.dll
 0005:000004b4       __imp_?GetProfileStringA@CWinApp@@UAE?AV?$CStringT@DV?$StrTraitMFC_DLL@DV?$ChTraitsCRT@D@ATL@@@@@ATL@@PBD00@Z 004424b4     mfc140d:mfc140d.dll
 0005:000004b8       __imp_?WriteProfileStringA@CWinApp@@UAEHPBD00@Z 004424b8     mfc140d:mfc140d.dll
 0005:000004bc       __imp_?GetProfileBinary@CWinApp@@UAEHPBD0PAPAEPAI@Z 004424bc     mfc140d:mfc140d.dll
 0005:000004c0       __imp_?WriteProfileBinary@CWinApp@@UAEHPBD0PAEI@Z 004424c0     mfc140d:mfc140d.dll
 0005:000004c4       __imp_?InitLibId@CWinApp@@UAEXXZ 004424c4     mfc140d:mfc140d.dll
 0005:000004c8       __imp_?Register@CWinApp@@UAEHXZ 004424c8     mfc140d:mfc140d.dll
 0005:000004cc       __imp_?Unregister@CWinApp@@UAEHXZ 004424cc     mfc140d:mfc140d.dll
 0005:000004d0       __imp_?OpenDocumentFile@CWinApp@@UAEPAVCDocument@@PBD@Z 004424d0     mfc140d:mfc140d.dll
 0005:000004d4       __imp_?OpenDocumentFile@CWinApp@@UAEPAVCDocument@@PBDH@Z 004424d4     mfc140d:mfc140d.dll
 0005:000004d8       __imp_?AddToRecentFileList@CWinApp@@UAEXPBD@Z 004424d8     mfc140d:mfc140d.dll
 0005:000004dc       __imp_?InitApplication@CWinApp@@UAEHXZ 004424dc     mfc140d:mfc140d.dll
 0005:000004e0       __imp_?SaveAllModified@CWinApp@@UAEHXZ 004424e0     mfc140d:mfc140d.dll
 0005:000004e4       __imp_?DoMessageBox@CWinApp@@UAEHPBDII@Z 004424e4     mfc140d:mfc140d.dll
 0005:000004e8       __imp_?DoWaitCursor@CWinApp@@UAEXH@Z 004424e8     mfc140d:mfc140d.dll
 0005:000004ec       __imp_?OnDDECommand@CWinApp@@UAEHPAD@Z 004424ec     mfc140d:mfc140d.dll
 0005:000004f0       __imp_?WinHelpA@CWinApp@@UAEXKI@Z 004424f0     mfc140d:mfc140d.dll
 0005:000004f4       __imp_?HtmlHelpA@CWinApp@@UAEXKI@Z 004424f4     mfc140d:mfc140d.dll
 0005:000004f8       __imp_?WinHelpInternal@CWinApp@@UAEXKI@Z 004424f8     mfc140d:mfc140d.dll
 0005:000004fc       __imp_?RegisterWithRestartManager@CWinApp@@UAEJHABV?$CStringT@DV?$StrTraitMFC_DLL@DV?$ChTraitsCRT@D@ATL@@@@@ATL@@@Z 004424fc     mfc140d:mfc140d.dll
 0005:00000500       __imp_?RegisterWithRestartManager@CWinApp@@UAEJPB_WKP6GKPAX@Z1KK@Z 00442500     mfc140d:mfc140d.dll
 0005:00000504       __imp_?ApplicationRecoveryCallback@CWinApp@@UAEKPAX@Z 00442504     mfc140d:mfc140d.dll
 0005:00000508       __imp_?GetDataRecoveryHandler@CWinApp@@UAEPAVCDataRecoveryHandler@@XZ 00442508     mfc140d:mfc140d.dll
 0005:0000050c       __imp_?IsTaskbarInteractionEnabled@CWinApp@@UAEHXZ 0044250c     mfc140d:mfc140d.dll
 0005:00000510       __imp_?InitInstance@CWinApp@@UAEHXZ 00442510     mfc140d:mfc140d.dll
 0005:00000514       __imp_?ExitInstance@CWinApp@@UAEHXZ 00442514     mfc140d:mfc140d.dll
 0005:00000518       __imp_?RestartInstance@CWinApp@@UAEHXZ 00442518     mfc140d:mfc140d.dll
 0005:0000051c       __imp_?Run@CWinApp@@UAEHXZ 0044251c     mfc140d:mfc140d.dll
 0005:00000520       __imp_?OnIdle@CWinApp@@UAEHJ@Z 00442520     mfc140d:mfc140d.dll
 0005:00000524       __imp_?ProcessWndProcException@CWinApp@@UAEJPAVCException@@PBUtagMSG@@@Z 00442524     mfc140d:mfc140d.dll
 0005:00000528       __imp_?LoadAppLangResourceDLL@CWinApp@@UAEPAUHINSTANCE__@@XZ 00442528     mfc140d:mfc140d.dll
 0005:0000052c       __imp_??1CWinApp@@UAE@XZ   0044252c     mfc140d:mfc140d.dll
 0005:00000530       __imp_?AssertValid@CWinApp@@UBEXXZ 00442530     mfc140d:mfc140d.dll
 0005:00000534       __imp_?Dump@CWinApp@@UBEXAAVCDumpContext@@@Z 00442534     mfc140d:mfc140d.dll
 0005:00000538       __imp_?LoadSysPolicies@CWinApp@@UAEHXZ 00442538     mfc140d:mfc140d.dll
 0005:0000053c       __imp_?AfxEnableControlContainer@@YAXPAVCOccManager@@@Z 0044253c     mfc140d:mfc140d.dll
 0005:00000540       __imp_?SetDefaultManager@CMFCVisualManager@@SGXPAUCRuntimeClass@@@Z 00442540     mfc140d:mfc140d.dll
 0005:00000544       __imp_??0CShellManager@@QAE@XZ 00442544     mfc140d:mfc140d.dll
 0005:00000548       __imp_?GetThisClass@CMFCVisualManagerWindows@@SGPAUCRuntimeClass@@XZ 00442548     mfc140d:mfc140d.dll
 0005:0000054c       __imp_?traceAppMsg@@3VCTraceCategory@ATL@@A 0044254c     mfc140d:mfc140d.dll
 0005:00000550       __imp_?IsEmpty@?$CSimpleStringT@D$00@ATL@@QBE_NXZ 00442550     mfc140d:mfc140d.dll
 0005:00000554       __imp_??4?$CStringT@DV?$StrTraitMFC_DLL@DV?$ChTraitsCRT@D@ATL@@@@@ATL@@QAEAAV01@ABV01@@Z 00442554     mfc140d:mfc140d.dll
 0005:00000558       __imp_??Y?$CStringT@DV?$StrTraitMFC_DLL@DV?$ChTraitsCRT@D@ATL@@@@@ATL@@QAEAAV01@ABV?$CSimpleStringT@D$00@1@@Z 00442558     mfc140d:mfc140d.dll
 0005:0000055c       __imp_?LoadStringA@?$CStringT@DV?$StrTraitMFC_DLL@DV?$ChTraitsCRT@D@ATL@@@@@ATL@@QAEHI@Z 0044255c     mfc140d:mfc140d.dll
 0005:00000560       __imp_??2@YAPAXIPBDH@Z     00442560     mfc140d:mfc140d.dll
 0005:00000564       __imp_??3@YAXPAXPBDH@Z     00442564     mfc140d:mfc140d.dll
 0005:00000568       __imp_??_U@YAPAXIPBDH@Z    00442568     mfc140d:mfc140d.dll
 0005:0000056c       __imp_?GetSafeHdc@CDC@@QBEPAUHDC__@@XZ 0044256c     mfc140d:mfc140d.dll
 0005:00000570       __imp_?DrawIcon@CDC@@QAEHHHPAUHICON__@@@Z 00442570     mfc140d:mfc140d.dll
 0005:00000574       __imp_??0CPaintDC@@QAE@PAVCWnd@@@Z 00442574     mfc140d:mfc140d.dll
 0005:00000578       __imp_??1CPaintDC@@UAE@XZ  00442578     mfc140d:mfc140d.dll
 0005:0000057c       __imp_?AppendMenuA@CMenu@@QAEHIIPBD@Z 0044257c     mfc140d:mfc140d.dll
 0005:00000580       __imp_?SendMessageA@CWnd@@QBEJIIJ@Z 00442580     mfc140d:mfc140d.dll
 0005:00000584       __imp_?GetSystemMenu@CWnd@@QBEPAVCMenu@@H@Z 00442584     mfc140d:mfc140d.dll
 0005:00000588       __imp_?IsIconic@CWnd@@QBEHXZ 00442588     mfc140d:mfc140d.dll
 0005:0000058c       __imp_?GetClientRect@CWnd@@QBEXPAUtagRECT@@@Z 0044258c     mfc140d:mfc140d.dll
 0005:00000590       __imp_?ShowWindow@CWnd@@QAEHH@Z 00442590     mfc140d:mfc140d.dll
 0005:00000594       __imp_?SetDlgItemTextA@CWnd@@QAEXHPBD@Z 00442594     mfc140d:mfc140d.dll
 0005:00000598       __imp_?SetIcon@CWnd@@QAEPAUHICON__@@PAU2@H@Z 00442598     mfc140d:mfc140d.dll
 0005:0000059c       __imp_?UpdateData@CWnd@@QAEHH@Z 0044259c     mfc140d:mfc140d.dll
 0005:000005a0       __imp_?OnSysCommand@CWnd@@IAEXIJ@Z 004425a0     mfc140d:mfc140d.dll
 0005:000005a4       __imp_?OnPaint@CDialog@@IAEXXZ 004425a4     mfc140d:mfc140d.dll
 0005:000005a8       __imp_?LoadIconA@CWinApp@@QBEPAUHICON__@@I@Z 004425a8     mfc140d:mfc140d.dll
 0005:000005ac       __imp_?GetRuntimeClass@CDialogEx@@UBEPAUCRuntimeClass@@XZ 004425ac     mfc140d:mfc140d.dll
 0005:000005b0       __imp_?Create@CAsyncSocket@@QAEHIHJPBD@Z 004425b0     mfc140d:mfc140d.dll
 0005:000005b4       __imp_?GetPeerName@CAsyncSocket@@QAEHAAV?$CStringT@DV?$StrTraitMFC_DLL@DV?$ChTraitsCRT@D@ATL@@@@@ATL@@AAI@Z 004425b4     mfc140d:mfc140d.dll
 0005:000005b8       __imp_?IOCtl@CAsyncSocket@@QAEHJPAK@Z 004425b8     mfc140d:mfc140d.dll
 0005:000005bc       __imp_?Listen@CAsyncSocket@@QAEHH@Z 004425bc     mfc140d:mfc140d.dll
 0005:000005c0       __imp_?EnsureStdObj@CWnd@@UAEJXZ 004425c0     mfc140d:mfc140d.dll
 0005:000005c4       __imp_?GetInterfaceMap@CWnd@@MBEPBUAFX_INTERFACEMAP@@XZ 004425c4     mfc140d:mfc140d.dll
 0005:000005c8       __imp_?OnDrawIconicThumbnailOrLivePreview@CWnd@@UAEXAAVCDC@@VCRect@@VCSize@@HAAH@Z 004425c8     mfc140d:mfc140d.dll
 0005:000005cc       __imp_?EndModalLoop@CWnd@@UAEXH@Z 004425cc     mfc140d:mfc140d.dll
 0005:000005d0       __imp_?ContinueModal@CWnd@@UAEHXZ 004425d0     mfc140d:mfc140d.dll
 0005:000005d4       __imp_?WinHelpInternal@CWnd@@UAEXKI@Z 004425d4     mfc140d:mfc140d.dll
 0005:000005d8       __imp_?HtmlHelpA@CWnd@@UAEXKI@Z 004425d8     mfc140d:mfc140d.dll
 0005:000005dc       __imp_?WinHelpA@CWnd@@UAEXKI@Z 004425dc     mfc140d:mfc140d.dll
 0005:000005e0       __imp_?GetScrollBarCtrl@CWnd@@UBEPAVCScrollBar@@H@Z 004425e0     mfc140d:mfc140d.dll
 0005:000005e4       __imp_?OnToolHitTest@CWnd@@UBEHVCPoint@@PAUtagTOOLINFOA@@@Z 004425e4     mfc140d:mfc140d.dll
 0005:000005e8       __imp_?SetMenu@CWnd@@UAEHPAVCMenu@@@Z 004425e8     mfc140d:mfc140d.dll
 0005:000005ec       __imp_?GetMenu@CWnd@@UBEPAVCMenu@@XZ 004425ec     mfc140d:mfc140d.dll
 0005:000005f0       __imp_?CalcWindowRect@CWnd@@UAEXPAUtagRECT@@I@Z 004425f0     mfc140d:mfc140d.dll
 0005:000005f4       __imp_?PreCreateWindow@CWnd@@UAEHAAUtagCREATESTRUCTA@@@Z 004425f4     mfc140d:mfc140d.dll
 0005:000005f8       __imp_?DestroyWindow@CWnd@@UAEHXZ 004425f8     mfc140d:mfc140d.dll
 0005:000005fc       __imp_?CreateEx@CWnd@@UAEHKPBD0KABUtagRECT@@PAV1@IPAX@Z 004425fc     mfc140d:mfc140d.dll
 0005:00000600       __imp_?CreateEx@CWnd@@UAEHKPBD0KHHHHPAUHWND__@@PAUHMENU__@@PAX@Z 00442600     mfc140d:mfc140d.dll
 0005:00000604       __imp_?Create@CWnd@@UAEHPBD0KABUtagRECT@@PAV1@IPAUCCreateContext@@@Z 00442604     mfc140d:mfc140d.dll
 0005:00000608       __imp_?PreSubclassWindow@CWnd@@UAEXXZ 00442608     mfc140d:mfc140d.dll
 0005:0000060c       __imp_?GetConnectionHook@CCmdTarget@@MAEPAUIConnectionPoint@@ABU_GUID@@@Z 0044260c     mfc140d:mfc140d.dll
 0005:00000610       __imp_?GetExtraConnectionPoints@CCmdTarget@@MAEHPAVCPtrArray@@@Z 00442610     mfc140d:mfc140d.dll
 0005:00000614       __imp_?GetInterfaceHook@CCmdTarget@@UAEPAUIUnknown@@PBX@Z 00442614     mfc140d:mfc140d.dll
 0005:00000618       __imp_?OnCreateAggregates@CCmdTarget@@UAEHXZ 00442618     mfc140d:mfc140d.dll
 0005:0000061c       __imp_?GetEventSinkMap@CCmdTarget@@MBEPBUAFX_EVENTSINKMAP@@XZ 0044261c     mfc140d:mfc140d.dll
 0005:00000620       __imp_?GetConnectionMap@CCmdTarget@@MBEPBUAFX_CONNECTIONMAP@@XZ 00442620     mfc140d:mfc140d.dll
 0005:00000624       __imp_?GetDispatchMap@CCmdTarget@@MBEPBUAFX_DISPMAP@@XZ 00442624     mfc140d:mfc140d.dll
 0005:00000628       __imp_?GetCommandMap@CCmdTarget@@MBEPBUAFX_OLECMDMAP@@XZ 00442628     mfc140d:mfc140d.dll
 0005:0000062c       __imp_?GetTypeLib@CCmdTarget@@UAEJKPAPAUITypeLib@@@Z 0044262c     mfc140d:mfc140d.dll
 0005:00000630       __imp_?GetTypeLibCache@CCmdTarget@@UAEPAVCTypeLibCache@@XZ 00442630     mfc140d:mfc140d.dll
 0005:00000634       __imp_?GetTypeInfoCount@CCmdTarget@@UAEIXZ 00442634     mfc140d:mfc140d.dll
 0005:00000638       __imp_?GetDispatchIID@CCmdTarget@@UAEHPAU_GUID@@@Z 00442638     mfc140d:mfc140d.dll
 0005:0000063c       __imp_?IsInvokeAllowed@CCmdTarget@@UAEHJ@Z 0044263c     mfc140d:mfc140d.dll
 0005:00000640       __imp_?DDX_Control@@YGXPAVCDataExchange@@HAAVCWnd@@@Z 00442640     mfc140d:mfc140d.dll
 0005:00000644       __imp_??1CBrush@@UAE@XZ    00442644     mfc140d:mfc140d.dll
 0005:00000648       __imp_?GetManager@?$CStringT@DV?$StrTraitMFC_DLL@DV?$ChTraitsCRT@D@ATL@@@@@ATL@@QBEPAUIAtlStringMgr@2@XZ 00442648     mfc140d:mfc140d.dll
 0005:0000064c       __imp_??Y?$CStringT@DV?$StrTraitMFC_DLL@DV?$ChTraitsCRT@D@ATL@@@@@ATL@@QAEAAV01@D@Z 0044264c     mfc140d:mfc140d.dll
 0005:00000650       __imp_??4?$CStringT@DV?$StrTraitMFC_DLL@DV?$ChTraitsCRT@D@ATL@@@@@ATL@@QAEAAV01@PBD@Z 00442650     mfc140d:mfc140d.dll
 0005:00000654       __imp_??1?$CStringT@DV?$StrTraitMFC_DLL@DV?$ChTraitsCRT@D@ATL@@@@@ATL@@QAE@XZ 00442654     mfc140d:mfc140d.dll
 0005:00000658       __imp_??0?$CStringT@DV?$StrTraitMFC_DLL@DV?$ChTraitsCRT@D@ATL@@@@@ATL@@QAE@PBD@Z 00442658     mfc140d:mfc140d.dll
 0005:0000065c       __imp_??0?$CStringT@DV?$StrTraitMFC_DLL@DV?$ChTraitsCRT@D@ATL@@@@@ATL@@QAE@ABV01@@Z 0044265c     mfc140d:mfc140d.dll
 0005:00000660       __imp_??0?$CStringT@DV?$StrTraitMFC_DLL@DV?$ChTraitsCRT@D@ATL@@@@@ATL@@QAE@PAUIAtlStringMgr@1@@Z 00442660     mfc140d:mfc140d.dll
 0005:00000664       __imp_??0?$CStringT@DV?$StrTraitMFC_DLL@DV?$ChTraitsCRT@D@ATL@@@@@ATL@@QAE@XZ 00442664     mfc140d:mfc140d.dll
 0005:00000668       __imp_?Concatenate@?$CSimpleStringT@D$00@ATL@@KAXAAV12@PBDH1H@Z 00442668     mfc140d:mfc140d.dll
 0005:0000066c       __imp_?StringLength@?$CSimpleStringT@D$00@ATL@@SAHPBD@Z 0044266c     mfc140d:mfc140d.dll
 0005:00000670       __imp_?ReleaseBuffer@?$CSimpleStringT@D$00@ATL@@QAEXH@Z 00442670     mfc140d:mfc140d.dll
 0005:00000674       __imp_?GetLength@?$CSimpleStringT@D$00@ATL@@QBEHXZ 00442674     mfc140d:mfc140d.dll
 0005:00000678       __imp_?GetBuffer@?$CSimpleStringT@D$00@ATL@@QAEPADH@Z 00442678     mfc140d:mfc140d.dll
 0005:0000067c       __imp_?Empty@?$CSimpleStringT@D$00@ATL@@QAEXXZ 0044267c     mfc140d:mfc140d.dll
 0005:00000680       __imp_??B?$CSimpleStringT@D$00@ATL@@QBEPBDXZ 00442680     mfc140d:mfc140d.dll
 0005:00000684       __imp_??2@YAPAXI@Z         00442684     mfc140d:mfc140d.dll
 0005:00000688       __imp_?GetThisMessageMap@CDialogEx@@KGPBUAFX_MSGMAP@@XZ 00442688     mfc140d:mfc140d.dll
 0005:0000068c       __imp_?SendToHelper@CAsyncSocket@@MAEHPBXHPBUsockaddr@@HH@Z 0044268c     mfc140d:mfc140d.dll
 0005:00000690       __imp_?ReceiveFromHelper@CAsyncSocket@@MAEHPAXHPAUsockaddr@@PAHH@Z 00442690     mfc140d:mfc140d.dll
 0005:00000694       __imp_?ConnectHelper@CAsyncSocket@@MAEHPBUsockaddr@@H@Z 00442694     mfc140d:mfc140d.dll
 0005:00000698       __imp_?Dump@CAsyncSocket@@UBEXAAVCDumpContext@@@Z 00442698     mfc140d:mfc140d.dll
 0005:0000069c       __imp_?AssertValid@CAsyncSocket@@UBEXXZ 0044269c     mfc140d:mfc140d.dll
 0005:000006a0       __imp_??1CAsyncSocket@@UAE@XZ 004426a0     mfc140d:mfc140d.dll
 0005:000006a4       __imp_?OnClose@CAsyncSocket@@MAEXH@Z 004426a4     mfc140d:mfc140d.dll
 0005:000006a8       __imp_?OnConnect@CAsyncSocket@@MAEXH@Z 004426a8     mfc140d:mfc140d.dll
 0005:000006ac       __imp_?OnAccept@CAsyncSocket@@MAEXH@Z 004426ac     mfc140d:mfc140d.dll
 0005:000006b0       __imp_?OnOutOfBandData@CAsyncSocket@@MAEXH@Z 004426b0     mfc140d:mfc140d.dll
 0005:000006b4       __imp_?AfxGetModuleState@@YGPAVAFX_MODULE_STATE@@XZ 004426b4     mfc140d:mfc140d.dll
 0005:000006b8       __imp_?OnSend@CAsyncSocket@@MAEXH@Z 004426b8     mfc140d:mfc140d.dll
 0005:000006bc       __imp_?_AfxSocketInit@@YGHPAUWSAData@@@Z 004426bc     mfc140d:mfc140d.dll
 0005:000006c0       __imp_?OnReceive@CAsyncSocket@@MAEXH@Z 004426c0     mfc140d:mfc140d.dll
 0005:000006c4       __imp_?Send@CAsyncSocket@@UAEHPBXHH@Z 004426c4     mfc140d:mfc140d.dll
 0005:000006c8       __imp_?Receive@CAsyncSocket@@UAEHPAXHH@Z 004426c8     mfc140d:mfc140d.dll
 0005:000006cc       __imp_?Close@CAsyncSocket@@UAEXXZ 004426cc     mfc140d:mfc140d.dll
 0005:000006d0       __imp_?Accept@CAsyncSocket@@UAEHAAV1@PAUsockaddr@@PAH@Z 004426d0     mfc140d:mfc140d.dll
 0005:000006d4       __imp_??0CAsyncSocket@@QAE@XZ 004426d4     mfc140d:mfc140d.dll
 0005:000006d8       __imp_?GetRuntimeClass@CAsyncSocket@@UBEPAUCRuntimeClass@@XZ 004426d8     mfc140d:mfc140d.dll
 0005:000006dc       __imp_?AfxGetApp@@YGPAVCWinApp@@XZ 004426dc     mfc140d:mfc140d.dll
 0005:000006e0       __imp_?Serialize@CObject@@UAEXAAVCArchive@@@Z 004426e0     mfc140d:mfc140d.dll
 0005:000006e4       __imp_??3CObject@@SGXPAX@Z 004426e4     mfc140d:mfc140d.dll
 0005:000006e8       __imp_??3@YAXPAX@Z         004426e8     mfc140d:mfc140d.dll
 0005:000006ec       __imp_?SetCurSel@CListBox@@QAEHH@Z 004426ec     mfc140d:mfc140d.dll
 0005:000006f0       __imp_?AfxWinMain@@YGHPAUHINSTANCE__@@0PADH@Z 004426f0     mfc140d:mfc140d.dll
 0005:000006f4       \177mfc140d_NULL_THUNK_DATA 004426f4     mfc140d:mfc140d.dll
 0005:000007f0       __imp___setmbcp            004427f0     ucrtd:ucrtbased.dll
 0005:000007f4       __imp___recalloc           004427f4     ucrtd:ucrtbased.dll
 0005:000007f8       __imp___errno              004427f8     ucrtd:ucrtbased.dll
 0005:000007fc       __imp__free                004427fc     ucrtd:ucrtbased.dll
 0005:00000800       __imp__wcscpy_s            00442800     ucrtd:ucrtbased.dll
 0005:00000804       __imp____stdio_common_vswprintf_s 00442804     ucrtd:ucrtbased.dll
 0005:00000808       __imp__atoi                00442808     ucrtd:ucrtbased.dll
 0005:0000080c       __imp___CrtDbgReportW      0044280c     ucrtd:ucrtbased.dll
 0005:00000810       __imp____stdio_common_vsprintf 00442810     ucrtd:ucrtbased.dll
 0005:00000814       __imp__srand               00442814     ucrtd:ucrtbased.dll
 0005:00000818       __imp__rand                00442818     ucrtd:ucrtbased.dll
 0005:0000081c       __imp___time64             0044281c     ucrtd:ucrtbased.dll
 0005:00000820       __imp__wcslen              00442820     ucrtd:ucrtbased.dll
 0005:00000824       __imp____stdio_common_vsnprintf_s 00442824     ucrtd:ucrtbased.dll
 0005:00000828       __imp__malloc              00442828     ucrtd:ucrtbased.dll
 0005:0000082c       __imp__strcat              0044282c     ucrtd:ucrtbased.dll
 0005:00000830       __imp___CrtDbgReport       00442830     ucrtd:ucrtbased.dll
 0005:00000834       __imp____stdio_common_vsprintf_s 00442834     ucrtd:ucrtbased.dll
 0005:00000838       __imp___seh_filter_dll     00442838     ucrtd:ucrtbased.dll
 0005:0000083c       __imp___initialize_narrow_environment 0044283c     ucrtd:ucrtbased.dll
 0005:00000840       __imp___initialize_onexit_table 00442840     ucrtd:ucrtbased.dll
 0005:00000844       __imp___register_onexit_function 00442844     ucrtd:ucrtbased.dll
 0005:00000848       __imp___execute_onexit_table 00442848     ucrtd:ucrtbased.dll
 0005:0000084c       __imp___crt_atexit         0044284c     ucrtd:ucrtbased.dll
 0005:00000850       __imp___crt_at_quick_exit  00442850     ucrtd:ucrtbased.dll
 0005:00000854       __imp___cexit              00442854     ucrtd:ucrtbased.dll
 0005:00000858       __imp___seh_filter_exe     00442858     ucrtd:ucrtbased.dll
 0005:0000085c       __imp___set_app_type       0044285c     ucrtd:ucrtbased.dll
 0005:00000860       __imp____setusermatherr    00442860     ucrtd:ucrtbased.dll
 0005:00000864       __imp___configure_narrow_argv 00442864     ucrtd:ucrtbased.dll
 0005:00000868       __imp___get_narrow_winmain_command_line 00442868     ucrtd:ucrtbased.dll
 0005:0000086c       __imp___initterm           0044286c     ucrtd:ucrtbased.dll
 0005:00000870       __imp___initterm_e         00442870     ucrtd:ucrtbased.dll
 0005:00000874       __imp__exit                00442874     ucrtd:ucrtbased.dll
 0005:00000878       __imp___exit               00442878     ucrtd:ucrtbased.dll
 0005:0000087c       __imp___set_fmode          0044287c     ucrtd:ucrtbased.dll
 0005:00000880       __imp___c_exit             00442880     ucrtd:ucrtbased.dll
 0005:00000884       __imp___register_thread_local_exe_atexit_callback 00442884     ucrtd:ucrtbased.dll
 0005:00000888       __imp___configthreadlocale 00442888     ucrtd:ucrtbased.dll
 0005:0000088c       __imp___set_new_mode       0044288c     ucrtd:ucrtbased.dll
 0005:00000890       __imp____p__commode        00442890     ucrtd:ucrtbased.dll
 0005:00000894       __imp__terminate           00442894     ucrtd:ucrtbased.dll
 0005:00000898       __imp___wmakepath_s        00442898     ucrtd:ucrtbased.dll
 0005:0000089c       __imp___wsplitpath_s       0044289c     ucrtd:ucrtbased.dll
 0005:000008a0       __imp___controlfp_s        004428a0     ucrtd:ucrtbased.dll
 0005:000008a4       __imp___invalid_parameter_noinfo 004428a4     ucrtd:ucrtbased.dll
 0005:000008a8       __imp__strlen              004428a8     ucrtd:ucrtbased.dll
 0005:000008ac       \177ucrtbased_NULL_THUNK_DATA 004428ac     ucrtd:ucrtbased.dll
 0005:000008f8       __imp__pcap_compile        004428f8     wpcap:wpcap.dll
 0005:000008fc       __imp__pcap_findalldevs    004428fc     wpcap:wpcap.dll
 0005:00000900       __imp__pcap_next_ex        00442900     wpcap:wpcap.dll
 0005:00000904       __imp__pcap_close          00442904     wpcap:wpcap.dll
 0005:00000908       __imp__pcap_freealldevs    00442908     wpcap:wpcap.dll
 0005:0000090c       __imp__pcap_open_live      0044290c     wpcap:wpcap.dll
 0005:00000910       __imp__pcap_setfilter      00442910     wpcap:wpcap.dll
 0005:00000914       \177wpcap_NULL_THUNK_DATA  00442914     wpcap:wpcap.dll
 0005:00000944       __IMPORT_DESCRIPTOR_libmysql 00442944     libmysql:libmysql.dll
 0005:00000958       __IMPORT_DESCRIPTOR_mfc140d 00442958     mfc140d:mfc140d.dll
 0005:0000096c       __IMPORT_DESCRIPTOR_KERNEL32 0044296c     kernel32:KERNEL32.dll
 0005:00000980       __IMPORT_DESCRIPTOR_USER32 00442980     user32:USER32.dll
 0005:00000994       __IMPORT_DESCRIPTOR_GDI32  00442994     gdi32:GDI32.dll
 0005:000009a8       __IMPORT_DESCRIPTOR_COMCTL32 004429a8     comctl32:COMCTL32.dll
 0005:000009bc       __IMPORT_DESCRIPTOR_OLEAUT32 004429bc     oleaut32:OLEAUT32.dll
 0005:000009d0       __IMPORT_DESCRIPTOR_gdiplus 004429d0     gdiplus:gdiplus.dll
 0005:000009e4       __IMPORT_DESCRIPTOR_WS2_32 004429e4     ws2_32:WS2_32.dll
 0005:000009f8       __IMPORT_DESCRIPTOR_wpcap  004429f8     wpcap:wpcap.dll
 0005:00000a0c       __IMPORT_DESCRIPTOR_VCRUNTIME140D 00442a0c     vcruntimed:VCRUNTIME140D.dll
 0005:00000a20       __IMPORT_DESCRIPTOR_ucrtbased 00442a20     ucrtd:ucrtbased.dll
 0005:00000a34       __NULL_IMPORT_DESCRIPTOR   00442a34     libmysql:libmysql.dll
 0007:00000000       __tls_start                00445000     msvcrtd:tlssup.obj
 0007:00000104       __Init_thread_epoch        00445104     msvcrtd:thread_safe_statics.obj
 0007:00000208       __tls_end                  00445208     msvcrtd:tlssup.obj
 0008:00000000       ___guard_check_icall_fptr  00446000     msvcrtd:guard_support.obj
